
kernel/kernel.elf:     file format elf32-i386


Disassembly of section .boot:

00000000 <header_start>:
   0:	d6                   	(bad)  
   1:	50                   	push   %eax
   2:	52                   	push   %edx
   3:	e8 00 00 00 00       	call   8 <PAGE_DIR>
   8:	20 00                	and    %al,(%eax)
   a:	00 00                	add    %al,(%eax)
   c:	0a af ad 17 06 00    	or     0x617ad(%edi),%ch
  12:	00 00                	add    %al,(%eax)
  14:	08 00                	or     %al,(%eax)
  16:	00 00                	add    %al,(%eax)
  18:	00 00                	add    %al,(%eax)
  1a:	00 00                	add    %al,(%eax)
  1c:	08 00                	or     %al,(%eax)
	...

Disassembly of section .meminit:

00004000 <_start>:
    4000:	a3 04 d0 00 00       	mov    %eax,0xd004
    4005:	89 1d 08 d0 00 00    	mov    %ebx,0xd008
    400b:	0f 20 e1             	mov    %cr4,%ecx
    400e:	81 c9 80 00 00 00    	or     $0x80,%ecx
    4014:	0f 22 e1             	mov    %ecx,%cr4
    4017:	31 c9                	xor    %ecx,%ecx

00004019 <_setup_frames>:
    4019:	31 d2                	xor    %edx,%edx
    401b:	89 ca                	mov    %ecx,%edx
    401d:	c1 e2 0c             	shl    $0xc,%edx
    4020:	83 ca 03             	or     $0x3,%edx
    4023:	89 14 8d 00 60 00 00 	mov    %edx,0x6000(,%ecx,4)
    402a:	81 f9 00 04 00 00    	cmp    $0x400,%ecx
    4030:	7d 03                	jge    4035 <_end_setup_frames>
    4032:	41                   	inc    %ecx
    4033:	eb e4                	jmp    4019 <_setup_frames>

00004035 <_end_setup_frames>:
    4035:	ba 00 60 00 00       	mov    $0x6000,%edx
    403a:	83 ca 03             	or     $0x3,%edx
    403d:	89 15 00 50 00 00    	mov    %edx,0x5000
    4043:	89 15 00 5c 00 00    	mov    %edx,0x5c00
    4049:	31 c9                	xor    %ecx,%ecx

0000404b <_setup_frames2>:
    404b:	31 d2                	xor    %edx,%edx
    404d:	89 ca                	mov    %ecx,%edx
    404f:	81 c2 00 04 00 00    	add    $0x400,%edx
    4055:	c1 e2 0c             	shl    $0xc,%edx
    4058:	83 ca 03             	or     $0x3,%edx
    405b:	89 14 8d 00 70 00 00 	mov    %edx,0x7000(,%ecx,4)
    4062:	81 f9 00 04 00 00    	cmp    $0x400,%ecx
    4068:	7d 03                	jge    406d <_end_setup_frames2>
    406a:	41                   	inc    %ecx
    406b:	eb de                	jmp    404b <_setup_frames2>

0000406d <_end_setup_frames2>:
    406d:	ba 00 70 00 00       	mov    $0x7000,%edx
    4072:	83 ca 03             	or     $0x3,%edx
    4075:	89 15 04 50 00 00    	mov    %edx,0x5004
    407b:	89 15 04 5c 00 00    	mov    %edx,0x5c04
    4081:	31 c9                	xor    %ecx,%ecx

00004083 <_setup_frames3>:
    4083:	31 d2                	xor    %edx,%edx
    4085:	89 ca                	mov    %ecx,%edx
    4087:	81 c2 00 08 00 00    	add    $0x800,%edx
    408d:	c1 e2 0c             	shl    $0xc,%edx
    4090:	83 ca 03             	or     $0x3,%edx
    4093:	89 14 8d 00 80 00 00 	mov    %edx,0x8000(,%ecx,4)
    409a:	81 f9 00 04 00 00    	cmp    $0x400,%ecx
    40a0:	7d 03                	jge    40a5 <_end_setup_frames3>
    40a2:	41                   	inc    %ecx
    40a3:	eb de                	jmp    4083 <_setup_frames3>

000040a5 <_end_setup_frames3>:
    40a5:	ba 00 80 00 00       	mov    $0x8000,%edx
    40aa:	83 ca 03             	or     $0x3,%edx
    40ad:	89 15 08 50 00 00    	mov    %edx,0x5008
    40b3:	89 15 08 5c 00 00    	mov    %edx,0x5c08
    40b9:	31 c9                	xor    %ecx,%ecx

000040bb <_setup_frames4>:
    40bb:	31 d2                	xor    %edx,%edx
    40bd:	89 ca                	mov    %ecx,%edx
    40bf:	81 c2 00 0c 00 00    	add    $0xc00,%edx
    40c5:	c1 e2 0c             	shl    $0xc,%edx
    40c8:	83 ca 03             	or     $0x3,%edx
    40cb:	89 14 8d 00 90 00 00 	mov    %edx,0x9000(,%ecx,4)
    40d2:	81 f9 00 04 00 00    	cmp    $0x400,%ecx
    40d8:	7d 03                	jge    40dd <_end_setup_frames4>
    40da:	41                   	inc    %ecx
    40db:	eb de                	jmp    40bb <_setup_frames4>

000040dd <_end_setup_frames4>:
    40dd:	ba 00 90 00 00       	mov    $0x9000,%edx
    40e2:	83 ca 03             	or     $0x3,%edx
    40e5:	89 15 0c 50 00 00    	mov    %edx,0x500c
    40eb:	89 15 0c 5c 00 00    	mov    %edx,0x5c0c
    40f1:	31 c9                	xor    %ecx,%ecx

000040f3 <_setup_frames5>:
    40f3:	31 d2                	xor    %edx,%edx
    40f5:	89 ca                	mov    %ecx,%edx
    40f7:	81 c2 00 10 00 00    	add    $0x1000,%edx
    40fd:	c1 e2 0c             	shl    $0xc,%edx
    4100:	83 ca 03             	or     $0x3,%edx
    4103:	89 14 8d 00 a0 00 00 	mov    %edx,0xa000(,%ecx,4)
    410a:	81 f9 00 04 00 00    	cmp    $0x400,%ecx
    4110:	7d 03                	jge    4115 <_end_setup_frames5>
    4112:	41                   	inc    %ecx
    4113:	eb de                	jmp    40f3 <_setup_frames5>

00004115 <_end_setup_frames5>:
    4115:	ba 00 a0 00 00       	mov    $0xa000,%edx
    411a:	83 ca 03             	or     $0x3,%edx
    411d:	89 15 10 50 00 00    	mov    %edx,0x5010
    4123:	89 15 10 5c 00 00    	mov    %edx,0x5c10
    4129:	31 c9                	xor    %ecx,%ecx

0000412b <_setup_frames6>:
    412b:	31 d2                	xor    %edx,%edx
    412d:	89 ca                	mov    %ecx,%edx
    412f:	81 c2 00 14 00 00    	add    $0x1400,%edx
    4135:	c1 e2 0c             	shl    $0xc,%edx
    4138:	83 ca 03             	or     $0x3,%edx
    413b:	89 14 8d 00 b0 00 00 	mov    %edx,0xb000(,%ecx,4)
    4142:	81 f9 00 04 00 00    	cmp    $0x400,%ecx
    4148:	7d 03                	jge    414d <_end_setup_frames6>
    414a:	41                   	inc    %ecx
    414b:	eb de                	jmp    412b <_setup_frames6>

0000414d <_end_setup_frames6>:
    414d:	ba 00 b0 00 00       	mov    $0xb000,%edx
    4152:	83 ca 03             	or     $0x3,%edx
    4155:	89 15 14 50 00 00    	mov    %edx,0x5014
    415b:	89 15 14 5c 00 00    	mov    %edx,0x5c14
    4161:	31 c9                	xor    %ecx,%ecx

00004163 <_setup_frames7>:
    4163:	31 d2                	xor    %edx,%edx
    4165:	89 ca                	mov    %ecx,%edx
    4167:	81 c2 00 18 00 00    	add    $0x1800,%edx
    416d:	c1 e2 0c             	shl    $0xc,%edx
    4170:	83 ca 03             	or     $0x3,%edx
    4173:	89 14 8d 00 c0 00 00 	mov    %edx,0xc000(,%ecx,4)
    417a:	81 f9 00 04 00 00    	cmp    $0x400,%ecx
    4180:	7d 03                	jge    4185 <_end_setup_frames7>
    4182:	41                   	inc    %ecx
    4183:	eb de                	jmp    4163 <_setup_frames7>

00004185 <_end_setup_frames7>:
    4185:	ba 00 c0 00 00       	mov    $0xc000,%edx
    418a:	83 ca 03             	or     $0x3,%edx
    418d:	89 15 18 50 00 00    	mov    %edx,0x5018
    4193:	89 15 18 5c 00 00    	mov    %edx,0x5c18
    4199:	b8 00 50 00 00       	mov    $0x5000,%eax
    419e:	0f 22 d8             	mov    %eax,%cr3
    41a1:	0f 20 c0             	mov    %cr0,%eax
    41a4:	0d 00 00 00 80       	or     $0x80000000,%eax
    41a9:	0f 22 c0             	mov    %eax,%cr0
    41ac:	31 c9                	xor    %ecx,%ecx

000041ae <_setting_up_kernel_stack>:
    41ae:	8b 1d 08 d0 00 00    	mov    0xd008,%ebx
    41b4:	8b 1b                	mov    (%ebx),%ebx
    41b6:	8b 0d 08 d0 00 00    	mov    0xd008,%ecx
    41bc:	01 d9                	add    %ebx,%ecx
    41be:	81 c1 00 00 00 c0    	add    $0xc0000000,%ecx
    41c4:	81 c1 00 10 00 00    	add    $0x1000,%ecx
    41ca:	51                   	push   %ecx
    41cb:	81 e1 ff 0f 00 00    	and    $0xfff,%ecx
    41d1:	83 f9 00             	cmp    $0x0,%ecx
    41d4:	74 0e                	je     41e4 <_stack_ok>
    41d6:	59                   	pop    %ecx
    41d7:	81 e1 00 f0 ff ff    	and    $0xfffff000,%ecx
    41dd:	81 c1 00 10 00 00    	add    $0x1000,%ecx
    41e3:	51                   	push   %ecx

000041e4 <_stack_ok>:
    41e4:	59                   	pop    %ecx
    41e5:	89 0d 00 d0 00 00    	mov    %ecx,0xd000
    41eb:	89 cc                	mov    %ecx,%esp
    41ed:	31 ed                	xor    %ebp,%ebp
    41ef:	a1 04 d0 00 00       	mov    0xd004,%eax
    41f4:	8b 1d 08 d0 00 00    	mov    0xd008,%ebx
    41fa:	81 c3 00 00 00 c0    	add    $0xc0000000,%ebx
    4200:	53                   	push   %ebx
    4201:	50                   	push   %eax

00004202 <_call_main>:
    4202:	e8 97 c6 0f c0       	call   c010089e <kernel_main>

00004207 <_idle>:
    4207:	f4                   	hlt    
    4208:	eb fd                	jmp    4207 <_idle>
    420a:	90                   	nop
    420b:	90                   	nop
    420c:	90                   	nop
    420d:	90                   	nop
    420e:	90                   	nop
    420f:	90                   	nop
    4210:	90                   	nop
    4211:	90                   	nop
    4212:	90                   	nop
    4213:	90                   	nop
    4214:	90                   	nop
    4215:	90                   	nop
    4216:	90                   	nop
    4217:	90                   	nop
    4218:	90                   	nop
    4219:	90                   	nop
    421a:	90                   	nop
    421b:	90                   	nop
    421c:	90                   	nop
    421d:	90                   	nop
    421e:	90                   	nop
    421f:	90                   	nop
    4220:	90                   	nop
    4221:	90                   	nop
    4222:	90                   	nop
    4223:	90                   	nop
    4224:	90                   	nop
    4225:	90                   	nop
    4226:	90                   	nop
    4227:	90                   	nop
    4228:	90                   	nop
    4229:	90                   	nop
    422a:	90                   	nop
    422b:	90                   	nop
    422c:	90                   	nop
    422d:	90                   	nop
    422e:	90                   	nop
    422f:	90                   	nop
    4230:	90                   	nop
    4231:	90                   	nop
    4232:	90                   	nop
    4233:	90                   	nop
    4234:	90                   	nop
    4235:	90                   	nop
    4236:	90                   	nop
    4237:	90                   	nop
    4238:	90                   	nop
    4239:	90                   	nop
    423a:	90                   	nop
    423b:	90                   	nop
    423c:	90                   	nop
    423d:	90                   	nop
    423e:	90                   	nop
    423f:	90                   	nop
    4240:	90                   	nop
    4241:	90                   	nop
    4242:	90                   	nop
    4243:	90                   	nop
    4244:	90                   	nop
    4245:	90                   	nop
    4246:	90                   	nop
    4247:	90                   	nop
    4248:	90                   	nop
    4249:	90                   	nop
    424a:	90                   	nop
    424b:	90                   	nop
    424c:	90                   	nop
    424d:	90                   	nop
    424e:	90                   	nop
    424f:	90                   	nop
    4250:	90                   	nop
    4251:	90                   	nop
    4252:	90                   	nop
    4253:	90                   	nop
    4254:	90                   	nop
    4255:	90                   	nop
    4256:	90                   	nop
    4257:	90                   	nop
    4258:	90                   	nop
    4259:	90                   	nop
    425a:	90                   	nop
    425b:	90                   	nop
    425c:	90                   	nop
    425d:	90                   	nop
    425e:	90                   	nop
    425f:	90                   	nop
    4260:	90                   	nop
    4261:	90                   	nop
    4262:	90                   	nop
    4263:	90                   	nop
    4264:	90                   	nop
    4265:	90                   	nop
    4266:	90                   	nop
    4267:	90                   	nop
    4268:	90                   	nop
    4269:	90                   	nop
    426a:	90                   	nop
    426b:	90                   	nop
    426c:	90                   	nop
    426d:	90                   	nop
    426e:	90                   	nop
    426f:	90                   	nop
    4270:	90                   	nop
    4271:	90                   	nop
    4272:	90                   	nop
    4273:	90                   	nop
    4274:	90                   	nop
    4275:	90                   	nop
    4276:	90                   	nop
    4277:	90                   	nop
    4278:	90                   	nop
    4279:	90                   	nop
    427a:	90                   	nop
    427b:	90                   	nop
    427c:	90                   	nop
    427d:	90                   	nop
    427e:	90                   	nop
    427f:	90                   	nop
    4280:	90                   	nop
    4281:	90                   	nop
    4282:	90                   	nop
    4283:	90                   	nop
    4284:	90                   	nop
    4285:	90                   	nop
    4286:	90                   	nop
    4287:	90                   	nop
    4288:	90                   	nop
    4289:	90                   	nop
    428a:	90                   	nop
    428b:	90                   	nop
    428c:	90                   	nop
    428d:	90                   	nop
    428e:	90                   	nop
    428f:	90                   	nop
    4290:	90                   	nop
    4291:	90                   	nop
    4292:	90                   	nop
    4293:	90                   	nop
    4294:	90                   	nop
    4295:	90                   	nop
    4296:	90                   	nop
    4297:	90                   	nop
    4298:	90                   	nop
    4299:	90                   	nop
    429a:	90                   	nop
    429b:	90                   	nop
    429c:	90                   	nop
    429d:	90                   	nop
    429e:	90                   	nop
    429f:	90                   	nop
    42a0:	90                   	nop
    42a1:	90                   	nop
    42a2:	90                   	nop
    42a3:	90                   	nop
    42a4:	90                   	nop
    42a5:	90                   	nop
    42a6:	90                   	nop
    42a7:	90                   	nop
    42a8:	90                   	nop
    42a9:	90                   	nop
    42aa:	90                   	nop
    42ab:	90                   	nop
    42ac:	90                   	nop
    42ad:	90                   	nop
    42ae:	90                   	nop
    42af:	90                   	nop
    42b0:	90                   	nop
    42b1:	90                   	nop
    42b2:	90                   	nop
    42b3:	90                   	nop
    42b4:	90                   	nop
    42b5:	90                   	nop
    42b6:	90                   	nop
    42b7:	90                   	nop
    42b8:	90                   	nop
    42b9:	90                   	nop
    42ba:	90                   	nop
    42bb:	90                   	nop
    42bc:	90                   	nop
    42bd:	90                   	nop
    42be:	90                   	nop
    42bf:	90                   	nop
    42c0:	90                   	nop
    42c1:	90                   	nop
    42c2:	90                   	nop
    42c3:	90                   	nop
    42c4:	90                   	nop
    42c5:	90                   	nop
    42c6:	90                   	nop
    42c7:	90                   	nop
    42c8:	90                   	nop
    42c9:	90                   	nop
    42ca:	90                   	nop
    42cb:	90                   	nop
    42cc:	90                   	nop
    42cd:	90                   	nop
    42ce:	90                   	nop
    42cf:	90                   	nop
    42d0:	90                   	nop
    42d1:	90                   	nop
    42d2:	90                   	nop
    42d3:	90                   	nop
    42d4:	90                   	nop
    42d5:	90                   	nop
    42d6:	90                   	nop
    42d7:	90                   	nop
    42d8:	90                   	nop
    42d9:	90                   	nop
    42da:	90                   	nop
    42db:	90                   	nop
    42dc:	90                   	nop
    42dd:	90                   	nop
    42de:	90                   	nop
    42df:	90                   	nop
    42e0:	90                   	nop
    42e1:	90                   	nop
    42e2:	90                   	nop
    42e3:	90                   	nop
    42e4:	90                   	nop
    42e5:	90                   	nop
    42e6:	90                   	nop
    42e7:	90                   	nop
    42e8:	90                   	nop
    42e9:	90                   	nop
    42ea:	90                   	nop
    42eb:	90                   	nop
    42ec:	90                   	nop
    42ed:	90                   	nop
    42ee:	90                   	nop
    42ef:	90                   	nop
    42f0:	90                   	nop
    42f1:	90                   	nop
    42f2:	90                   	nop
    42f3:	90                   	nop
    42f4:	90                   	nop
    42f5:	90                   	nop
    42f6:	90                   	nop
    42f7:	90                   	nop
    42f8:	90                   	nop
    42f9:	90                   	nop
    42fa:	90                   	nop
    42fb:	90                   	nop
    42fc:	90                   	nop
    42fd:	90                   	nop
    42fe:	90                   	nop
    42ff:	90                   	nop
    4300:	90                   	nop
    4301:	90                   	nop
    4302:	90                   	nop
    4303:	90                   	nop
    4304:	90                   	nop
    4305:	90                   	nop
    4306:	90                   	nop
    4307:	90                   	nop
    4308:	90                   	nop
    4309:	90                   	nop
    430a:	90                   	nop
    430b:	90                   	nop
    430c:	90                   	nop
    430d:	90                   	nop
    430e:	90                   	nop
    430f:	90                   	nop
    4310:	90                   	nop
    4311:	90                   	nop
    4312:	90                   	nop
    4313:	90                   	nop
    4314:	90                   	nop
    4315:	90                   	nop
    4316:	90                   	nop
    4317:	90                   	nop
    4318:	90                   	nop
    4319:	90                   	nop
    431a:	90                   	nop
    431b:	90                   	nop
    431c:	90                   	nop
    431d:	90                   	nop
    431e:	90                   	nop
    431f:	90                   	nop
    4320:	90                   	nop
    4321:	90                   	nop
    4322:	90                   	nop
    4323:	90                   	nop
    4324:	90                   	nop
    4325:	90                   	nop
    4326:	90                   	nop
    4327:	90                   	nop
    4328:	90                   	nop
    4329:	90                   	nop
    432a:	90                   	nop
    432b:	90                   	nop
    432c:	90                   	nop
    432d:	90                   	nop
    432e:	90                   	nop
    432f:	90                   	nop
    4330:	90                   	nop
    4331:	90                   	nop
    4332:	90                   	nop
    4333:	90                   	nop
    4334:	90                   	nop
    4335:	90                   	nop
    4336:	90                   	nop
    4337:	90                   	nop
    4338:	90                   	nop
    4339:	90                   	nop
    433a:	90                   	nop
    433b:	90                   	nop
    433c:	90                   	nop
    433d:	90                   	nop
    433e:	90                   	nop
    433f:	90                   	nop
    4340:	90                   	nop
    4341:	90                   	nop
    4342:	90                   	nop
    4343:	90                   	nop
    4344:	90                   	nop
    4345:	90                   	nop
    4346:	90                   	nop
    4347:	90                   	nop
    4348:	90                   	nop
    4349:	90                   	nop
    434a:	90                   	nop
    434b:	90                   	nop
    434c:	90                   	nop
    434d:	90                   	nop
    434e:	90                   	nop
    434f:	90                   	nop
    4350:	90                   	nop
    4351:	90                   	nop
    4352:	90                   	nop
    4353:	90                   	nop
    4354:	90                   	nop
    4355:	90                   	nop
    4356:	90                   	nop
    4357:	90                   	nop
    4358:	90                   	nop
    4359:	90                   	nop
    435a:	90                   	nop
    435b:	90                   	nop
    435c:	90                   	nop
    435d:	90                   	nop
    435e:	90                   	nop
    435f:	90                   	nop
    4360:	90                   	nop
    4361:	90                   	nop
    4362:	90                   	nop
    4363:	90                   	nop
    4364:	90                   	nop
    4365:	90                   	nop
    4366:	90                   	nop
    4367:	90                   	nop
    4368:	90                   	nop
    4369:	90                   	nop
    436a:	90                   	nop
    436b:	90                   	nop
    436c:	90                   	nop
    436d:	90                   	nop
    436e:	90                   	nop
    436f:	90                   	nop
    4370:	90                   	nop
    4371:	90                   	nop
    4372:	90                   	nop
    4373:	90                   	nop
    4374:	90                   	nop
    4375:	90                   	nop
    4376:	90                   	nop
    4377:	90                   	nop
    4378:	90                   	nop
    4379:	90                   	nop
    437a:	90                   	nop
    437b:	90                   	nop
    437c:	90                   	nop
    437d:	90                   	nop
    437e:	90                   	nop
    437f:	90                   	nop
    4380:	90                   	nop
    4381:	90                   	nop
    4382:	90                   	nop
    4383:	90                   	nop
    4384:	90                   	nop
    4385:	90                   	nop
    4386:	90                   	nop
    4387:	90                   	nop
    4388:	90                   	nop
    4389:	90                   	nop
    438a:	90                   	nop
    438b:	90                   	nop
    438c:	90                   	nop
    438d:	90                   	nop
    438e:	90                   	nop
    438f:	90                   	nop
    4390:	90                   	nop
    4391:	90                   	nop
    4392:	90                   	nop
    4393:	90                   	nop
    4394:	90                   	nop
    4395:	90                   	nop
    4396:	90                   	nop
    4397:	90                   	nop
    4398:	90                   	nop
    4399:	90                   	nop
    439a:	90                   	nop
    439b:	90                   	nop
    439c:	90                   	nop
    439d:	90                   	nop
    439e:	90                   	nop
    439f:	90                   	nop
    43a0:	90                   	nop
    43a1:	90                   	nop
    43a2:	90                   	nop
    43a3:	90                   	nop
    43a4:	90                   	nop
    43a5:	90                   	nop
    43a6:	90                   	nop
    43a7:	90                   	nop
    43a8:	90                   	nop
    43a9:	90                   	nop
    43aa:	90                   	nop
    43ab:	90                   	nop
    43ac:	90                   	nop
    43ad:	90                   	nop
    43ae:	90                   	nop
    43af:	90                   	nop
    43b0:	90                   	nop
    43b1:	90                   	nop
    43b2:	90                   	nop
    43b3:	90                   	nop
    43b4:	90                   	nop
    43b5:	90                   	nop
    43b6:	90                   	nop
    43b7:	90                   	nop
    43b8:	90                   	nop
    43b9:	90                   	nop
    43ba:	90                   	nop
    43bb:	90                   	nop
    43bc:	90                   	nop
    43bd:	90                   	nop
    43be:	90                   	nop
    43bf:	90                   	nop
    43c0:	90                   	nop
    43c1:	90                   	nop
    43c2:	90                   	nop
    43c3:	90                   	nop
    43c4:	90                   	nop
    43c5:	90                   	nop
    43c6:	90                   	nop
    43c7:	90                   	nop
    43c8:	90                   	nop
    43c9:	90                   	nop
    43ca:	90                   	nop
    43cb:	90                   	nop
    43cc:	90                   	nop
    43cd:	90                   	nop
    43ce:	90                   	nop
    43cf:	90                   	nop
    43d0:	90                   	nop
    43d1:	90                   	nop
    43d2:	90                   	nop
    43d3:	90                   	nop
    43d4:	90                   	nop
    43d5:	90                   	nop
    43d6:	90                   	nop
    43d7:	90                   	nop
    43d8:	90                   	nop
    43d9:	90                   	nop
    43da:	90                   	nop
    43db:	90                   	nop
    43dc:	90                   	nop
    43dd:	90                   	nop
    43de:	90                   	nop
    43df:	90                   	nop
    43e0:	90                   	nop
    43e1:	90                   	nop
    43e2:	90                   	nop
    43e3:	90                   	nop
    43e4:	90                   	nop
    43e5:	90                   	nop
    43e6:	90                   	nop
    43e7:	90                   	nop
    43e8:	90                   	nop
    43e9:	90                   	nop
    43ea:	90                   	nop
    43eb:	90                   	nop
    43ec:	90                   	nop
    43ed:	90                   	nop
    43ee:	90                   	nop
    43ef:	90                   	nop
    43f0:	90                   	nop
    43f1:	90                   	nop
    43f2:	90                   	nop
    43f3:	90                   	nop
    43f4:	90                   	nop
    43f5:	90                   	nop
    43f6:	90                   	nop
    43f7:	90                   	nop
    43f8:	90                   	nop
    43f9:	90                   	nop
    43fa:	90                   	nop
    43fb:	90                   	nop
    43fc:	90                   	nop
    43fd:	90                   	nop
    43fe:	90                   	nop
    43ff:	90                   	nop
    4400:	90                   	nop
    4401:	90                   	nop
    4402:	90                   	nop
    4403:	90                   	nop
    4404:	90                   	nop
    4405:	90                   	nop
    4406:	90                   	nop
    4407:	90                   	nop
    4408:	90                   	nop
    4409:	90                   	nop
    440a:	90                   	nop
    440b:	90                   	nop
    440c:	90                   	nop
    440d:	90                   	nop
    440e:	90                   	nop
    440f:	90                   	nop
    4410:	90                   	nop
    4411:	90                   	nop
    4412:	90                   	nop
    4413:	90                   	nop
    4414:	90                   	nop
    4415:	90                   	nop
    4416:	90                   	nop
    4417:	90                   	nop
    4418:	90                   	nop
    4419:	90                   	nop
    441a:	90                   	nop
    441b:	90                   	nop
    441c:	90                   	nop
    441d:	90                   	nop
    441e:	90                   	nop
    441f:	90                   	nop
    4420:	90                   	nop
    4421:	90                   	nop
    4422:	90                   	nop
    4423:	90                   	nop
    4424:	90                   	nop
    4425:	90                   	nop
    4426:	90                   	nop
    4427:	90                   	nop
    4428:	90                   	nop
    4429:	90                   	nop
    442a:	90                   	nop
    442b:	90                   	nop
    442c:	90                   	nop
    442d:	90                   	nop
    442e:	90                   	nop
    442f:	90                   	nop
    4430:	90                   	nop
    4431:	90                   	nop
    4432:	90                   	nop
    4433:	90                   	nop
    4434:	90                   	nop
    4435:	90                   	nop
    4436:	90                   	nop
    4437:	90                   	nop
    4438:	90                   	nop
    4439:	90                   	nop
    443a:	90                   	nop
    443b:	90                   	nop
    443c:	90                   	nop
    443d:	90                   	nop
    443e:	90                   	nop
    443f:	90                   	nop
    4440:	90                   	nop
    4441:	90                   	nop
    4442:	90                   	nop
    4443:	90                   	nop
    4444:	90                   	nop
    4445:	90                   	nop
    4446:	90                   	nop
    4447:	90                   	nop
    4448:	90                   	nop
    4449:	90                   	nop
    444a:	90                   	nop
    444b:	90                   	nop
    444c:	90                   	nop
    444d:	90                   	nop
    444e:	90                   	nop
    444f:	90                   	nop
    4450:	90                   	nop
    4451:	90                   	nop
    4452:	90                   	nop
    4453:	90                   	nop
    4454:	90                   	nop
    4455:	90                   	nop
    4456:	90                   	nop
    4457:	90                   	nop
    4458:	90                   	nop
    4459:	90                   	nop
    445a:	90                   	nop
    445b:	90                   	nop
    445c:	90                   	nop
    445d:	90                   	nop
    445e:	90                   	nop
    445f:	90                   	nop
    4460:	90                   	nop
    4461:	90                   	nop
    4462:	90                   	nop
    4463:	90                   	nop
    4464:	90                   	nop
    4465:	90                   	nop
    4466:	90                   	nop
    4467:	90                   	nop
    4468:	90                   	nop
    4469:	90                   	nop
    446a:	90                   	nop
    446b:	90                   	nop
    446c:	90                   	nop
    446d:	90                   	nop
    446e:	90                   	nop
    446f:	90                   	nop
    4470:	90                   	nop
    4471:	90                   	nop
    4472:	90                   	nop
    4473:	90                   	nop
    4474:	90                   	nop
    4475:	90                   	nop
    4476:	90                   	nop
    4477:	90                   	nop
    4478:	90                   	nop
    4479:	90                   	nop
    447a:	90                   	nop
    447b:	90                   	nop
    447c:	90                   	nop
    447d:	90                   	nop
    447e:	90                   	nop
    447f:	90                   	nop
    4480:	90                   	nop
    4481:	90                   	nop
    4482:	90                   	nop
    4483:	90                   	nop
    4484:	90                   	nop
    4485:	90                   	nop
    4486:	90                   	nop
    4487:	90                   	nop
    4488:	90                   	nop
    4489:	90                   	nop
    448a:	90                   	nop
    448b:	90                   	nop
    448c:	90                   	nop
    448d:	90                   	nop
    448e:	90                   	nop
    448f:	90                   	nop
    4490:	90                   	nop
    4491:	90                   	nop
    4492:	90                   	nop
    4493:	90                   	nop
    4494:	90                   	nop
    4495:	90                   	nop
    4496:	90                   	nop
    4497:	90                   	nop
    4498:	90                   	nop
    4499:	90                   	nop
    449a:	90                   	nop
    449b:	90                   	nop
    449c:	90                   	nop
    449d:	90                   	nop
    449e:	90                   	nop
    449f:	90                   	nop
    44a0:	90                   	nop
    44a1:	90                   	nop
    44a2:	90                   	nop
    44a3:	90                   	nop
    44a4:	90                   	nop
    44a5:	90                   	nop
    44a6:	90                   	nop
    44a7:	90                   	nop
    44a8:	90                   	nop
    44a9:	90                   	nop
    44aa:	90                   	nop
    44ab:	90                   	nop
    44ac:	90                   	nop
    44ad:	90                   	nop
    44ae:	90                   	nop
    44af:	90                   	nop
    44b0:	90                   	nop
    44b1:	90                   	nop
    44b2:	90                   	nop
    44b3:	90                   	nop
    44b4:	90                   	nop
    44b5:	90                   	nop
    44b6:	90                   	nop
    44b7:	90                   	nop
    44b8:	90                   	nop
    44b9:	90                   	nop
    44ba:	90                   	nop
    44bb:	90                   	nop
    44bc:	90                   	nop
    44bd:	90                   	nop
    44be:	90                   	nop
    44bf:	90                   	nop
    44c0:	90                   	nop
    44c1:	90                   	nop
    44c2:	90                   	nop
    44c3:	90                   	nop
    44c4:	90                   	nop
    44c5:	90                   	nop
    44c6:	90                   	nop
    44c7:	90                   	nop
    44c8:	90                   	nop
    44c9:	90                   	nop
    44ca:	90                   	nop
    44cb:	90                   	nop
    44cc:	90                   	nop
    44cd:	90                   	nop
    44ce:	90                   	nop
    44cf:	90                   	nop
    44d0:	90                   	nop
    44d1:	90                   	nop
    44d2:	90                   	nop
    44d3:	90                   	nop
    44d4:	90                   	nop
    44d5:	90                   	nop
    44d6:	90                   	nop
    44d7:	90                   	nop
    44d8:	90                   	nop
    44d9:	90                   	nop
    44da:	90                   	nop
    44db:	90                   	nop
    44dc:	90                   	nop
    44dd:	90                   	nop
    44de:	90                   	nop
    44df:	90                   	nop
    44e0:	90                   	nop
    44e1:	90                   	nop
    44e2:	90                   	nop
    44e3:	90                   	nop
    44e4:	90                   	nop
    44e5:	90                   	nop
    44e6:	90                   	nop
    44e7:	90                   	nop
    44e8:	90                   	nop
    44e9:	90                   	nop
    44ea:	90                   	nop
    44eb:	90                   	nop
    44ec:	90                   	nop
    44ed:	90                   	nop
    44ee:	90                   	nop
    44ef:	90                   	nop
    44f0:	90                   	nop
    44f1:	90                   	nop
    44f2:	90                   	nop
    44f3:	90                   	nop
    44f4:	90                   	nop
    44f5:	90                   	nop
    44f6:	90                   	nop
    44f7:	90                   	nop
    44f8:	90                   	nop
    44f9:	90                   	nop
    44fa:	90                   	nop
    44fb:	90                   	nop
    44fc:	90                   	nop
    44fd:	90                   	nop
    44fe:	90                   	nop
    44ff:	90                   	nop
    4500:	90                   	nop
    4501:	90                   	nop
    4502:	90                   	nop
    4503:	90                   	nop
    4504:	90                   	nop
    4505:	90                   	nop
    4506:	90                   	nop
    4507:	90                   	nop
    4508:	90                   	nop
    4509:	90                   	nop
    450a:	90                   	nop
    450b:	90                   	nop
    450c:	90                   	nop
    450d:	90                   	nop
    450e:	90                   	nop
    450f:	90                   	nop
    4510:	90                   	nop
    4511:	90                   	nop
    4512:	90                   	nop
    4513:	90                   	nop
    4514:	90                   	nop
    4515:	90                   	nop
    4516:	90                   	nop
    4517:	90                   	nop
    4518:	90                   	nop
    4519:	90                   	nop
    451a:	90                   	nop
    451b:	90                   	nop
    451c:	90                   	nop
    451d:	90                   	nop
    451e:	90                   	nop
    451f:	90                   	nop
    4520:	90                   	nop
    4521:	90                   	nop
    4522:	90                   	nop
    4523:	90                   	nop
    4524:	90                   	nop
    4525:	90                   	nop
    4526:	90                   	nop
    4527:	90                   	nop
    4528:	90                   	nop
    4529:	90                   	nop
    452a:	90                   	nop
    452b:	90                   	nop
    452c:	90                   	nop
    452d:	90                   	nop
    452e:	90                   	nop
    452f:	90                   	nop
    4530:	90                   	nop
    4531:	90                   	nop
    4532:	90                   	nop
    4533:	90                   	nop
    4534:	90                   	nop
    4535:	90                   	nop
    4536:	90                   	nop
    4537:	90                   	nop
    4538:	90                   	nop
    4539:	90                   	nop
    453a:	90                   	nop
    453b:	90                   	nop
    453c:	90                   	nop
    453d:	90                   	nop
    453e:	90                   	nop
    453f:	90                   	nop
    4540:	90                   	nop
    4541:	90                   	nop
    4542:	90                   	nop
    4543:	90                   	nop
    4544:	90                   	nop
    4545:	90                   	nop
    4546:	90                   	nop
    4547:	90                   	nop
    4548:	90                   	nop
    4549:	90                   	nop
    454a:	90                   	nop
    454b:	90                   	nop
    454c:	90                   	nop
    454d:	90                   	nop
    454e:	90                   	nop
    454f:	90                   	nop
    4550:	90                   	nop
    4551:	90                   	nop
    4552:	90                   	nop
    4553:	90                   	nop
    4554:	90                   	nop
    4555:	90                   	nop
    4556:	90                   	nop
    4557:	90                   	nop
    4558:	90                   	nop
    4559:	90                   	nop
    455a:	90                   	nop
    455b:	90                   	nop
    455c:	90                   	nop
    455d:	90                   	nop
    455e:	90                   	nop
    455f:	90                   	nop
    4560:	90                   	nop
    4561:	90                   	nop
    4562:	90                   	nop
    4563:	90                   	nop
    4564:	90                   	nop
    4565:	90                   	nop
    4566:	90                   	nop
    4567:	90                   	nop
    4568:	90                   	nop
    4569:	90                   	nop
    456a:	90                   	nop
    456b:	90                   	nop
    456c:	90                   	nop
    456d:	90                   	nop
    456e:	90                   	nop
    456f:	90                   	nop
    4570:	90                   	nop
    4571:	90                   	nop
    4572:	90                   	nop
    4573:	90                   	nop
    4574:	90                   	nop
    4575:	90                   	nop
    4576:	90                   	nop
    4577:	90                   	nop
    4578:	90                   	nop
    4579:	90                   	nop
    457a:	90                   	nop
    457b:	90                   	nop
    457c:	90                   	nop
    457d:	90                   	nop
    457e:	90                   	nop
    457f:	90                   	nop
    4580:	90                   	nop
    4581:	90                   	nop
    4582:	90                   	nop
    4583:	90                   	nop
    4584:	90                   	nop
    4585:	90                   	nop
    4586:	90                   	nop
    4587:	90                   	nop
    4588:	90                   	nop
    4589:	90                   	nop
    458a:	90                   	nop
    458b:	90                   	nop
    458c:	90                   	nop
    458d:	90                   	nop
    458e:	90                   	nop
    458f:	90                   	nop
    4590:	90                   	nop
    4591:	90                   	nop
    4592:	90                   	nop
    4593:	90                   	nop
    4594:	90                   	nop
    4595:	90                   	nop
    4596:	90                   	nop
    4597:	90                   	nop
    4598:	90                   	nop
    4599:	90                   	nop
    459a:	90                   	nop
    459b:	90                   	nop
    459c:	90                   	nop
    459d:	90                   	nop
    459e:	90                   	nop
    459f:	90                   	nop
    45a0:	90                   	nop
    45a1:	90                   	nop
    45a2:	90                   	nop
    45a3:	90                   	nop
    45a4:	90                   	nop
    45a5:	90                   	nop
    45a6:	90                   	nop
    45a7:	90                   	nop
    45a8:	90                   	nop
    45a9:	90                   	nop
    45aa:	90                   	nop
    45ab:	90                   	nop
    45ac:	90                   	nop
    45ad:	90                   	nop
    45ae:	90                   	nop
    45af:	90                   	nop
    45b0:	90                   	nop
    45b1:	90                   	nop
    45b2:	90                   	nop
    45b3:	90                   	nop
    45b4:	90                   	nop
    45b5:	90                   	nop
    45b6:	90                   	nop
    45b7:	90                   	nop
    45b8:	90                   	nop
    45b9:	90                   	nop
    45ba:	90                   	nop
    45bb:	90                   	nop
    45bc:	90                   	nop
    45bd:	90                   	nop
    45be:	90                   	nop
    45bf:	90                   	nop
    45c0:	90                   	nop
    45c1:	90                   	nop
    45c2:	90                   	nop
    45c3:	90                   	nop
    45c4:	90                   	nop
    45c5:	90                   	nop
    45c6:	90                   	nop
    45c7:	90                   	nop
    45c8:	90                   	nop
    45c9:	90                   	nop
    45ca:	90                   	nop
    45cb:	90                   	nop
    45cc:	90                   	nop
    45cd:	90                   	nop
    45ce:	90                   	nop
    45cf:	90                   	nop
    45d0:	90                   	nop
    45d1:	90                   	nop
    45d2:	90                   	nop
    45d3:	90                   	nop
    45d4:	90                   	nop
    45d5:	90                   	nop
    45d6:	90                   	nop
    45d7:	90                   	nop
    45d8:	90                   	nop
    45d9:	90                   	nop
    45da:	90                   	nop
    45db:	90                   	nop
    45dc:	90                   	nop
    45dd:	90                   	nop
    45de:	90                   	nop
    45df:	90                   	nop
    45e0:	90                   	nop
    45e1:	90                   	nop
    45e2:	90                   	nop
    45e3:	90                   	nop
    45e4:	90                   	nop
    45e5:	90                   	nop
    45e6:	90                   	nop
    45e7:	90                   	nop
    45e8:	90                   	nop
    45e9:	90                   	nop
    45ea:	90                   	nop
    45eb:	90                   	nop
    45ec:	90                   	nop
    45ed:	90                   	nop
    45ee:	90                   	nop
    45ef:	90                   	nop
    45f0:	90                   	nop
    45f1:	90                   	nop
    45f2:	90                   	nop
    45f3:	90                   	nop
    45f4:	90                   	nop
    45f5:	90                   	nop
    45f6:	90                   	nop
    45f7:	90                   	nop
    45f8:	90                   	nop
    45f9:	90                   	nop
    45fa:	90                   	nop
    45fb:	90                   	nop
    45fc:	90                   	nop
    45fd:	90                   	nop
    45fe:	90                   	nop
    45ff:	90                   	nop
    4600:	90                   	nop
    4601:	90                   	nop
    4602:	90                   	nop
    4603:	90                   	nop
    4604:	90                   	nop
    4605:	90                   	nop
    4606:	90                   	nop
    4607:	90                   	nop
    4608:	90                   	nop
    4609:	90                   	nop
    460a:	90                   	nop
    460b:	90                   	nop
    460c:	90                   	nop
    460d:	90                   	nop
    460e:	90                   	nop
    460f:	90                   	nop
    4610:	90                   	nop
    4611:	90                   	nop
    4612:	90                   	nop
    4613:	90                   	nop
    4614:	90                   	nop
    4615:	90                   	nop
    4616:	90                   	nop
    4617:	90                   	nop
    4618:	90                   	nop
    4619:	90                   	nop
    461a:	90                   	nop
    461b:	90                   	nop
    461c:	90                   	nop
    461d:	90                   	nop
    461e:	90                   	nop
    461f:	90                   	nop
    4620:	90                   	nop
    4621:	90                   	nop
    4622:	90                   	nop
    4623:	90                   	nop
    4624:	90                   	nop
    4625:	90                   	nop
    4626:	90                   	nop
    4627:	90                   	nop
    4628:	90                   	nop
    4629:	90                   	nop
    462a:	90                   	nop
    462b:	90                   	nop
    462c:	90                   	nop
    462d:	90                   	nop
    462e:	90                   	nop
    462f:	90                   	nop
    4630:	90                   	nop
    4631:	90                   	nop
    4632:	90                   	nop
    4633:	90                   	nop
    4634:	90                   	nop
    4635:	90                   	nop
    4636:	90                   	nop
    4637:	90                   	nop
    4638:	90                   	nop
    4639:	90                   	nop
    463a:	90                   	nop
    463b:	90                   	nop
    463c:	90                   	nop
    463d:	90                   	nop
    463e:	90                   	nop
    463f:	90                   	nop
    4640:	90                   	nop
    4641:	90                   	nop
    4642:	90                   	nop
    4643:	90                   	nop
    4644:	90                   	nop
    4645:	90                   	nop
    4646:	90                   	nop
    4647:	90                   	nop
    4648:	90                   	nop
    4649:	90                   	nop
    464a:	90                   	nop
    464b:	90                   	nop
    464c:	90                   	nop
    464d:	90                   	nop
    464e:	90                   	nop
    464f:	90                   	nop
    4650:	90                   	nop
    4651:	90                   	nop
    4652:	90                   	nop
    4653:	90                   	nop
    4654:	90                   	nop
    4655:	90                   	nop
    4656:	90                   	nop
    4657:	90                   	nop
    4658:	90                   	nop
    4659:	90                   	nop
    465a:	90                   	nop
    465b:	90                   	nop
    465c:	90                   	nop
    465d:	90                   	nop
    465e:	90                   	nop
    465f:	90                   	nop
    4660:	90                   	nop
    4661:	90                   	nop
    4662:	90                   	nop
    4663:	90                   	nop
    4664:	90                   	nop
    4665:	90                   	nop
    4666:	90                   	nop
    4667:	90                   	nop
    4668:	90                   	nop
    4669:	90                   	nop
    466a:	90                   	nop
    466b:	90                   	nop
    466c:	90                   	nop
    466d:	90                   	nop
    466e:	90                   	nop
    466f:	90                   	nop
    4670:	90                   	nop
    4671:	90                   	nop
    4672:	90                   	nop
    4673:	90                   	nop
    4674:	90                   	nop
    4675:	90                   	nop
    4676:	90                   	nop
    4677:	90                   	nop
    4678:	90                   	nop
    4679:	90                   	nop
    467a:	90                   	nop
    467b:	90                   	nop
    467c:	90                   	nop
    467d:	90                   	nop
    467e:	90                   	nop
    467f:	90                   	nop
    4680:	90                   	nop
    4681:	90                   	nop
    4682:	90                   	nop
    4683:	90                   	nop
    4684:	90                   	nop
    4685:	90                   	nop
    4686:	90                   	nop
    4687:	90                   	nop
    4688:	90                   	nop
    4689:	90                   	nop
    468a:	90                   	nop
    468b:	90                   	nop
    468c:	90                   	nop
    468d:	90                   	nop
    468e:	90                   	nop
    468f:	90                   	nop
    4690:	90                   	nop
    4691:	90                   	nop
    4692:	90                   	nop
    4693:	90                   	nop
    4694:	90                   	nop
    4695:	90                   	nop
    4696:	90                   	nop
    4697:	90                   	nop
    4698:	90                   	nop
    4699:	90                   	nop
    469a:	90                   	nop
    469b:	90                   	nop
    469c:	90                   	nop
    469d:	90                   	nop
    469e:	90                   	nop
    469f:	90                   	nop
    46a0:	90                   	nop
    46a1:	90                   	nop
    46a2:	90                   	nop
    46a3:	90                   	nop
    46a4:	90                   	nop
    46a5:	90                   	nop
    46a6:	90                   	nop
    46a7:	90                   	nop
    46a8:	90                   	nop
    46a9:	90                   	nop
    46aa:	90                   	nop
    46ab:	90                   	nop
    46ac:	90                   	nop
    46ad:	90                   	nop
    46ae:	90                   	nop
    46af:	90                   	nop
    46b0:	90                   	nop
    46b1:	90                   	nop
    46b2:	90                   	nop
    46b3:	90                   	nop
    46b4:	90                   	nop
    46b5:	90                   	nop
    46b6:	90                   	nop
    46b7:	90                   	nop
    46b8:	90                   	nop
    46b9:	90                   	nop
    46ba:	90                   	nop
    46bb:	90                   	nop
    46bc:	90                   	nop
    46bd:	90                   	nop
    46be:	90                   	nop
    46bf:	90                   	nop
    46c0:	90                   	nop
    46c1:	90                   	nop
    46c2:	90                   	nop
    46c3:	90                   	nop
    46c4:	90                   	nop
    46c5:	90                   	nop
    46c6:	90                   	nop
    46c7:	90                   	nop
    46c8:	90                   	nop
    46c9:	90                   	nop
    46ca:	90                   	nop
    46cb:	90                   	nop
    46cc:	90                   	nop
    46cd:	90                   	nop
    46ce:	90                   	nop
    46cf:	90                   	nop
    46d0:	90                   	nop
    46d1:	90                   	nop
    46d2:	90                   	nop
    46d3:	90                   	nop
    46d4:	90                   	nop
    46d5:	90                   	nop
    46d6:	90                   	nop
    46d7:	90                   	nop
    46d8:	90                   	nop
    46d9:	90                   	nop
    46da:	90                   	nop
    46db:	90                   	nop
    46dc:	90                   	nop
    46dd:	90                   	nop
    46de:	90                   	nop
    46df:	90                   	nop
    46e0:	90                   	nop
    46e1:	90                   	nop
    46e2:	90                   	nop
    46e3:	90                   	nop
    46e4:	90                   	nop
    46e5:	90                   	nop
    46e6:	90                   	nop
    46e7:	90                   	nop
    46e8:	90                   	nop
    46e9:	90                   	nop
    46ea:	90                   	nop
    46eb:	90                   	nop
    46ec:	90                   	nop
    46ed:	90                   	nop
    46ee:	90                   	nop
    46ef:	90                   	nop
    46f0:	90                   	nop
    46f1:	90                   	nop
    46f2:	90                   	nop
    46f3:	90                   	nop
    46f4:	90                   	nop
    46f5:	90                   	nop
    46f6:	90                   	nop
    46f7:	90                   	nop
    46f8:	90                   	nop
    46f9:	90                   	nop
    46fa:	90                   	nop
    46fb:	90                   	nop
    46fc:	90                   	nop
    46fd:	90                   	nop
    46fe:	90                   	nop
    46ff:	90                   	nop
    4700:	90                   	nop
    4701:	90                   	nop
    4702:	90                   	nop
    4703:	90                   	nop
    4704:	90                   	nop
    4705:	90                   	nop
    4706:	90                   	nop
    4707:	90                   	nop
    4708:	90                   	nop
    4709:	90                   	nop
    470a:	90                   	nop
    470b:	90                   	nop
    470c:	90                   	nop
    470d:	90                   	nop
    470e:	90                   	nop
    470f:	90                   	nop
    4710:	90                   	nop
    4711:	90                   	nop
    4712:	90                   	nop
    4713:	90                   	nop
    4714:	90                   	nop
    4715:	90                   	nop
    4716:	90                   	nop
    4717:	90                   	nop
    4718:	90                   	nop
    4719:	90                   	nop
    471a:	90                   	nop
    471b:	90                   	nop
    471c:	90                   	nop
    471d:	90                   	nop
    471e:	90                   	nop
    471f:	90                   	nop
    4720:	90                   	nop
    4721:	90                   	nop
    4722:	90                   	nop
    4723:	90                   	nop
    4724:	90                   	nop
    4725:	90                   	nop
    4726:	90                   	nop
    4727:	90                   	nop
    4728:	90                   	nop
    4729:	90                   	nop
    472a:	90                   	nop
    472b:	90                   	nop
    472c:	90                   	nop
    472d:	90                   	nop
    472e:	90                   	nop
    472f:	90                   	nop
    4730:	90                   	nop
    4731:	90                   	nop
    4732:	90                   	nop
    4733:	90                   	nop
    4734:	90                   	nop
    4735:	90                   	nop
    4736:	90                   	nop
    4737:	90                   	nop
    4738:	90                   	nop
    4739:	90                   	nop
    473a:	90                   	nop
    473b:	90                   	nop
    473c:	90                   	nop
    473d:	90                   	nop
    473e:	90                   	nop
    473f:	90                   	nop
    4740:	90                   	nop
    4741:	90                   	nop
    4742:	90                   	nop
    4743:	90                   	nop
    4744:	90                   	nop
    4745:	90                   	nop
    4746:	90                   	nop
    4747:	90                   	nop
    4748:	90                   	nop
    4749:	90                   	nop
    474a:	90                   	nop
    474b:	90                   	nop
    474c:	90                   	nop
    474d:	90                   	nop
    474e:	90                   	nop
    474f:	90                   	nop
    4750:	90                   	nop
    4751:	90                   	nop
    4752:	90                   	nop
    4753:	90                   	nop
    4754:	90                   	nop
    4755:	90                   	nop
    4756:	90                   	nop
    4757:	90                   	nop
    4758:	90                   	nop
    4759:	90                   	nop
    475a:	90                   	nop
    475b:	90                   	nop
    475c:	90                   	nop
    475d:	90                   	nop
    475e:	90                   	nop
    475f:	90                   	nop
    4760:	90                   	nop
    4761:	90                   	nop
    4762:	90                   	nop
    4763:	90                   	nop
    4764:	90                   	nop
    4765:	90                   	nop
    4766:	90                   	nop
    4767:	90                   	nop
    4768:	90                   	nop
    4769:	90                   	nop
    476a:	90                   	nop
    476b:	90                   	nop
    476c:	90                   	nop
    476d:	90                   	nop
    476e:	90                   	nop
    476f:	90                   	nop
    4770:	90                   	nop
    4771:	90                   	nop
    4772:	90                   	nop
    4773:	90                   	nop
    4774:	90                   	nop
    4775:	90                   	nop
    4776:	90                   	nop
    4777:	90                   	nop
    4778:	90                   	nop
    4779:	90                   	nop
    477a:	90                   	nop
    477b:	90                   	nop
    477c:	90                   	nop
    477d:	90                   	nop
    477e:	90                   	nop
    477f:	90                   	nop
    4780:	90                   	nop
    4781:	90                   	nop
    4782:	90                   	nop
    4783:	90                   	nop
    4784:	90                   	nop
    4785:	90                   	nop
    4786:	90                   	nop
    4787:	90                   	nop
    4788:	90                   	nop
    4789:	90                   	nop
    478a:	90                   	nop
    478b:	90                   	nop
    478c:	90                   	nop
    478d:	90                   	nop
    478e:	90                   	nop
    478f:	90                   	nop
    4790:	90                   	nop
    4791:	90                   	nop
    4792:	90                   	nop
    4793:	90                   	nop
    4794:	90                   	nop
    4795:	90                   	nop
    4796:	90                   	nop
    4797:	90                   	nop
    4798:	90                   	nop
    4799:	90                   	nop
    479a:	90                   	nop
    479b:	90                   	nop
    479c:	90                   	nop
    479d:	90                   	nop
    479e:	90                   	nop
    479f:	90                   	nop
    47a0:	90                   	nop
    47a1:	90                   	nop
    47a2:	90                   	nop
    47a3:	90                   	nop
    47a4:	90                   	nop
    47a5:	90                   	nop
    47a6:	90                   	nop
    47a7:	90                   	nop
    47a8:	90                   	nop
    47a9:	90                   	nop
    47aa:	90                   	nop
    47ab:	90                   	nop
    47ac:	90                   	nop
    47ad:	90                   	nop
    47ae:	90                   	nop
    47af:	90                   	nop
    47b0:	90                   	nop
    47b1:	90                   	nop
    47b2:	90                   	nop
    47b3:	90                   	nop
    47b4:	90                   	nop
    47b5:	90                   	nop
    47b6:	90                   	nop
    47b7:	90                   	nop
    47b8:	90                   	nop
    47b9:	90                   	nop
    47ba:	90                   	nop
    47bb:	90                   	nop
    47bc:	90                   	nop
    47bd:	90                   	nop
    47be:	90                   	nop
    47bf:	90                   	nop
    47c0:	90                   	nop
    47c1:	90                   	nop
    47c2:	90                   	nop
    47c3:	90                   	nop
    47c4:	90                   	nop
    47c5:	90                   	nop
    47c6:	90                   	nop
    47c7:	90                   	nop
    47c8:	90                   	nop
    47c9:	90                   	nop
    47ca:	90                   	nop
    47cb:	90                   	nop
    47cc:	90                   	nop
    47cd:	90                   	nop
    47ce:	90                   	nop
    47cf:	90                   	nop
    47d0:	90                   	nop
    47d1:	90                   	nop
    47d2:	90                   	nop
    47d3:	90                   	nop
    47d4:	90                   	nop
    47d5:	90                   	nop
    47d6:	90                   	nop
    47d7:	90                   	nop
    47d8:	90                   	nop
    47d9:	90                   	nop
    47da:	90                   	nop
    47db:	90                   	nop
    47dc:	90                   	nop
    47dd:	90                   	nop
    47de:	90                   	nop
    47df:	90                   	nop
    47e0:	90                   	nop
    47e1:	90                   	nop
    47e2:	90                   	nop
    47e3:	90                   	nop
    47e4:	90                   	nop
    47e5:	90                   	nop
    47e6:	90                   	nop
    47e7:	90                   	nop
    47e8:	90                   	nop
    47e9:	90                   	nop
    47ea:	90                   	nop
    47eb:	90                   	nop
    47ec:	90                   	nop
    47ed:	90                   	nop
    47ee:	90                   	nop
    47ef:	90                   	nop
    47f0:	90                   	nop
    47f1:	90                   	nop
    47f2:	90                   	nop
    47f3:	90                   	nop
    47f4:	90                   	nop
    47f5:	90                   	nop
    47f6:	90                   	nop
    47f7:	90                   	nop
    47f8:	90                   	nop
    47f9:	90                   	nop
    47fa:	90                   	nop
    47fb:	90                   	nop
    47fc:	90                   	nop
    47fd:	90                   	nop
    47fe:	90                   	nop
    47ff:	90                   	nop
    4800:	90                   	nop
    4801:	90                   	nop
    4802:	90                   	nop
    4803:	90                   	nop
    4804:	90                   	nop
    4805:	90                   	nop
    4806:	90                   	nop
    4807:	90                   	nop
    4808:	90                   	nop
    4809:	90                   	nop
    480a:	90                   	nop
    480b:	90                   	nop
    480c:	90                   	nop
    480d:	90                   	nop
    480e:	90                   	nop
    480f:	90                   	nop
    4810:	90                   	nop
    4811:	90                   	nop
    4812:	90                   	nop
    4813:	90                   	nop
    4814:	90                   	nop
    4815:	90                   	nop
    4816:	90                   	nop
    4817:	90                   	nop
    4818:	90                   	nop
    4819:	90                   	nop
    481a:	90                   	nop
    481b:	90                   	nop
    481c:	90                   	nop
    481d:	90                   	nop
    481e:	90                   	nop
    481f:	90                   	nop
    4820:	90                   	nop
    4821:	90                   	nop
    4822:	90                   	nop
    4823:	90                   	nop
    4824:	90                   	nop
    4825:	90                   	nop
    4826:	90                   	nop
    4827:	90                   	nop
    4828:	90                   	nop
    4829:	90                   	nop
    482a:	90                   	nop
    482b:	90                   	nop
    482c:	90                   	nop
    482d:	90                   	nop
    482e:	90                   	nop
    482f:	90                   	nop
    4830:	90                   	nop
    4831:	90                   	nop
    4832:	90                   	nop
    4833:	90                   	nop
    4834:	90                   	nop
    4835:	90                   	nop
    4836:	90                   	nop
    4837:	90                   	nop
    4838:	90                   	nop
    4839:	90                   	nop
    483a:	90                   	nop
    483b:	90                   	nop
    483c:	90                   	nop
    483d:	90                   	nop
    483e:	90                   	nop
    483f:	90                   	nop
    4840:	90                   	nop
    4841:	90                   	nop
    4842:	90                   	nop
    4843:	90                   	nop
    4844:	90                   	nop
    4845:	90                   	nop
    4846:	90                   	nop
    4847:	90                   	nop
    4848:	90                   	nop
    4849:	90                   	nop
    484a:	90                   	nop
    484b:	90                   	nop
    484c:	90                   	nop
    484d:	90                   	nop
    484e:	90                   	nop
    484f:	90                   	nop
    4850:	90                   	nop
    4851:	90                   	nop
    4852:	90                   	nop
    4853:	90                   	nop
    4854:	90                   	nop
    4855:	90                   	nop
    4856:	90                   	nop
    4857:	90                   	nop
    4858:	90                   	nop
    4859:	90                   	nop
    485a:	90                   	nop
    485b:	90                   	nop
    485c:	90                   	nop
    485d:	90                   	nop
    485e:	90                   	nop
    485f:	90                   	nop
    4860:	90                   	nop
    4861:	90                   	nop
    4862:	90                   	nop
    4863:	90                   	nop
    4864:	90                   	nop
    4865:	90                   	nop
    4866:	90                   	nop
    4867:	90                   	nop
    4868:	90                   	nop
    4869:	90                   	nop
    486a:	90                   	nop
    486b:	90                   	nop
    486c:	90                   	nop
    486d:	90                   	nop
    486e:	90                   	nop
    486f:	90                   	nop
    4870:	90                   	nop
    4871:	90                   	nop
    4872:	90                   	nop
    4873:	90                   	nop
    4874:	90                   	nop
    4875:	90                   	nop
    4876:	90                   	nop
    4877:	90                   	nop
    4878:	90                   	nop
    4879:	90                   	nop
    487a:	90                   	nop
    487b:	90                   	nop
    487c:	90                   	nop
    487d:	90                   	nop
    487e:	90                   	nop
    487f:	90                   	nop
    4880:	90                   	nop
    4881:	90                   	nop
    4882:	90                   	nop
    4883:	90                   	nop
    4884:	90                   	nop
    4885:	90                   	nop
    4886:	90                   	nop
    4887:	90                   	nop
    4888:	90                   	nop
    4889:	90                   	nop
    488a:	90                   	nop
    488b:	90                   	nop
    488c:	90                   	nop
    488d:	90                   	nop
    488e:	90                   	nop
    488f:	90                   	nop
    4890:	90                   	nop
    4891:	90                   	nop
    4892:	90                   	nop
    4893:	90                   	nop
    4894:	90                   	nop
    4895:	90                   	nop
    4896:	90                   	nop
    4897:	90                   	nop
    4898:	90                   	nop
    4899:	90                   	nop
    489a:	90                   	nop
    489b:	90                   	nop
    489c:	90                   	nop
    489d:	90                   	nop
    489e:	90                   	nop
    489f:	90                   	nop
    48a0:	90                   	nop
    48a1:	90                   	nop
    48a2:	90                   	nop
    48a3:	90                   	nop
    48a4:	90                   	nop
    48a5:	90                   	nop
    48a6:	90                   	nop
    48a7:	90                   	nop
    48a8:	90                   	nop
    48a9:	90                   	nop
    48aa:	90                   	nop
    48ab:	90                   	nop
    48ac:	90                   	nop
    48ad:	90                   	nop
    48ae:	90                   	nop
    48af:	90                   	nop
    48b0:	90                   	nop
    48b1:	90                   	nop
    48b2:	90                   	nop
    48b3:	90                   	nop
    48b4:	90                   	nop
    48b5:	90                   	nop
    48b6:	90                   	nop
    48b7:	90                   	nop
    48b8:	90                   	nop
    48b9:	90                   	nop
    48ba:	90                   	nop
    48bb:	90                   	nop
    48bc:	90                   	nop
    48bd:	90                   	nop
    48be:	90                   	nop
    48bf:	90                   	nop
    48c0:	90                   	nop
    48c1:	90                   	nop
    48c2:	90                   	nop
    48c3:	90                   	nop
    48c4:	90                   	nop
    48c5:	90                   	nop
    48c6:	90                   	nop
    48c7:	90                   	nop
    48c8:	90                   	nop
    48c9:	90                   	nop
    48ca:	90                   	nop
    48cb:	90                   	nop
    48cc:	90                   	nop
    48cd:	90                   	nop
    48ce:	90                   	nop
    48cf:	90                   	nop
    48d0:	90                   	nop
    48d1:	90                   	nop
    48d2:	90                   	nop
    48d3:	90                   	nop
    48d4:	90                   	nop
    48d5:	90                   	nop
    48d6:	90                   	nop
    48d7:	90                   	nop
    48d8:	90                   	nop
    48d9:	90                   	nop
    48da:	90                   	nop
    48db:	90                   	nop
    48dc:	90                   	nop
    48dd:	90                   	nop
    48de:	90                   	nop
    48df:	90                   	nop
    48e0:	90                   	nop
    48e1:	90                   	nop
    48e2:	90                   	nop
    48e3:	90                   	nop
    48e4:	90                   	nop
    48e5:	90                   	nop
    48e6:	90                   	nop
    48e7:	90                   	nop
    48e8:	90                   	nop
    48e9:	90                   	nop
    48ea:	90                   	nop
    48eb:	90                   	nop
    48ec:	90                   	nop
    48ed:	90                   	nop
    48ee:	90                   	nop
    48ef:	90                   	nop
    48f0:	90                   	nop
    48f1:	90                   	nop
    48f2:	90                   	nop
    48f3:	90                   	nop
    48f4:	90                   	nop
    48f5:	90                   	nop
    48f6:	90                   	nop
    48f7:	90                   	nop
    48f8:	90                   	nop
    48f9:	90                   	nop
    48fa:	90                   	nop
    48fb:	90                   	nop
    48fc:	90                   	nop
    48fd:	90                   	nop
    48fe:	90                   	nop
    48ff:	90                   	nop
    4900:	90                   	nop
    4901:	90                   	nop
    4902:	90                   	nop
    4903:	90                   	nop
    4904:	90                   	nop
    4905:	90                   	nop
    4906:	90                   	nop
    4907:	90                   	nop
    4908:	90                   	nop
    4909:	90                   	nop
    490a:	90                   	nop
    490b:	90                   	nop
    490c:	90                   	nop
    490d:	90                   	nop
    490e:	90                   	nop
    490f:	90                   	nop
    4910:	90                   	nop
    4911:	90                   	nop
    4912:	90                   	nop
    4913:	90                   	nop
    4914:	90                   	nop
    4915:	90                   	nop
    4916:	90                   	nop
    4917:	90                   	nop
    4918:	90                   	nop
    4919:	90                   	nop
    491a:	90                   	nop
    491b:	90                   	nop
    491c:	90                   	nop
    491d:	90                   	nop
    491e:	90                   	nop
    491f:	90                   	nop
    4920:	90                   	nop
    4921:	90                   	nop
    4922:	90                   	nop
    4923:	90                   	nop
    4924:	90                   	nop
    4925:	90                   	nop
    4926:	90                   	nop
    4927:	90                   	nop
    4928:	90                   	nop
    4929:	90                   	nop
    492a:	90                   	nop
    492b:	90                   	nop
    492c:	90                   	nop
    492d:	90                   	nop
    492e:	90                   	nop
    492f:	90                   	nop
    4930:	90                   	nop
    4931:	90                   	nop
    4932:	90                   	nop
    4933:	90                   	nop
    4934:	90                   	nop
    4935:	90                   	nop
    4936:	90                   	nop
    4937:	90                   	nop
    4938:	90                   	nop
    4939:	90                   	nop
    493a:	90                   	nop
    493b:	90                   	nop
    493c:	90                   	nop
    493d:	90                   	nop
    493e:	90                   	nop
    493f:	90                   	nop
    4940:	90                   	nop
    4941:	90                   	nop
    4942:	90                   	nop
    4943:	90                   	nop
    4944:	90                   	nop
    4945:	90                   	nop
    4946:	90                   	nop
    4947:	90                   	nop
    4948:	90                   	nop
    4949:	90                   	nop
    494a:	90                   	nop
    494b:	90                   	nop
    494c:	90                   	nop
    494d:	90                   	nop
    494e:	90                   	nop
    494f:	90                   	nop
    4950:	90                   	nop
    4951:	90                   	nop
    4952:	90                   	nop
    4953:	90                   	nop
    4954:	90                   	nop
    4955:	90                   	nop
    4956:	90                   	nop
    4957:	90                   	nop
    4958:	90                   	nop
    4959:	90                   	nop
    495a:	90                   	nop
    495b:	90                   	nop
    495c:	90                   	nop
    495d:	90                   	nop
    495e:	90                   	nop
    495f:	90                   	nop
    4960:	90                   	nop
    4961:	90                   	nop
    4962:	90                   	nop
    4963:	90                   	nop
    4964:	90                   	nop
    4965:	90                   	nop
    4966:	90                   	nop
    4967:	90                   	nop
    4968:	90                   	nop
    4969:	90                   	nop
    496a:	90                   	nop
    496b:	90                   	nop
    496c:	90                   	nop
    496d:	90                   	nop
    496e:	90                   	nop
    496f:	90                   	nop
    4970:	90                   	nop
    4971:	90                   	nop
    4972:	90                   	nop
    4973:	90                   	nop
    4974:	90                   	nop
    4975:	90                   	nop
    4976:	90                   	nop
    4977:	90                   	nop
    4978:	90                   	nop
    4979:	90                   	nop
    497a:	90                   	nop
    497b:	90                   	nop
    497c:	90                   	nop
    497d:	90                   	nop
    497e:	90                   	nop
    497f:	90                   	nop
    4980:	90                   	nop
    4981:	90                   	nop
    4982:	90                   	nop
    4983:	90                   	nop
    4984:	90                   	nop
    4985:	90                   	nop
    4986:	90                   	nop
    4987:	90                   	nop
    4988:	90                   	nop
    4989:	90                   	nop
    498a:	90                   	nop
    498b:	90                   	nop
    498c:	90                   	nop
    498d:	90                   	nop
    498e:	90                   	nop
    498f:	90                   	nop
    4990:	90                   	nop
    4991:	90                   	nop
    4992:	90                   	nop
    4993:	90                   	nop
    4994:	90                   	nop
    4995:	90                   	nop
    4996:	90                   	nop
    4997:	90                   	nop
    4998:	90                   	nop
    4999:	90                   	nop
    499a:	90                   	nop
    499b:	90                   	nop
    499c:	90                   	nop
    499d:	90                   	nop
    499e:	90                   	nop
    499f:	90                   	nop
    49a0:	90                   	nop
    49a1:	90                   	nop
    49a2:	90                   	nop
    49a3:	90                   	nop
    49a4:	90                   	nop
    49a5:	90                   	nop
    49a6:	90                   	nop
    49a7:	90                   	nop
    49a8:	90                   	nop
    49a9:	90                   	nop
    49aa:	90                   	nop
    49ab:	90                   	nop
    49ac:	90                   	nop
    49ad:	90                   	nop
    49ae:	90                   	nop
    49af:	90                   	nop
    49b0:	90                   	nop
    49b1:	90                   	nop
    49b2:	90                   	nop
    49b3:	90                   	nop
    49b4:	90                   	nop
    49b5:	90                   	nop
    49b6:	90                   	nop
    49b7:	90                   	nop
    49b8:	90                   	nop
    49b9:	90                   	nop
    49ba:	90                   	nop
    49bb:	90                   	nop
    49bc:	90                   	nop
    49bd:	90                   	nop
    49be:	90                   	nop
    49bf:	90                   	nop
    49c0:	90                   	nop
    49c1:	90                   	nop
    49c2:	90                   	nop
    49c3:	90                   	nop
    49c4:	90                   	nop
    49c5:	90                   	nop
    49c6:	90                   	nop
    49c7:	90                   	nop
    49c8:	90                   	nop
    49c9:	90                   	nop
    49ca:	90                   	nop
    49cb:	90                   	nop
    49cc:	90                   	nop
    49cd:	90                   	nop
    49ce:	90                   	nop
    49cf:	90                   	nop
    49d0:	90                   	nop
    49d1:	90                   	nop
    49d2:	90                   	nop
    49d3:	90                   	nop
    49d4:	90                   	nop
    49d5:	90                   	nop
    49d6:	90                   	nop
    49d7:	90                   	nop
    49d8:	90                   	nop
    49d9:	90                   	nop
    49da:	90                   	nop
    49db:	90                   	nop
    49dc:	90                   	nop
    49dd:	90                   	nop
    49de:	90                   	nop
    49df:	90                   	nop
    49e0:	90                   	nop
    49e1:	90                   	nop
    49e2:	90                   	nop
    49e3:	90                   	nop
    49e4:	90                   	nop
    49e5:	90                   	nop
    49e6:	90                   	nop
    49e7:	90                   	nop
    49e8:	90                   	nop
    49e9:	90                   	nop
    49ea:	90                   	nop
    49eb:	90                   	nop
    49ec:	90                   	nop
    49ed:	90                   	nop
    49ee:	90                   	nop
    49ef:	90                   	nop
    49f0:	90                   	nop
    49f1:	90                   	nop
    49f2:	90                   	nop
    49f3:	90                   	nop
    49f4:	90                   	nop
    49f5:	90                   	nop
    49f6:	90                   	nop
    49f7:	90                   	nop
    49f8:	90                   	nop
    49f9:	90                   	nop
    49fa:	90                   	nop
    49fb:	90                   	nop
    49fc:	90                   	nop
    49fd:	90                   	nop
    49fe:	90                   	nop
    49ff:	90                   	nop
    4a00:	90                   	nop
    4a01:	90                   	nop
    4a02:	90                   	nop
    4a03:	90                   	nop
    4a04:	90                   	nop
    4a05:	90                   	nop
    4a06:	90                   	nop
    4a07:	90                   	nop
    4a08:	90                   	nop
    4a09:	90                   	nop
    4a0a:	90                   	nop
    4a0b:	90                   	nop
    4a0c:	90                   	nop
    4a0d:	90                   	nop
    4a0e:	90                   	nop
    4a0f:	90                   	nop
    4a10:	90                   	nop
    4a11:	90                   	nop
    4a12:	90                   	nop
    4a13:	90                   	nop
    4a14:	90                   	nop
    4a15:	90                   	nop
    4a16:	90                   	nop
    4a17:	90                   	nop
    4a18:	90                   	nop
    4a19:	90                   	nop
    4a1a:	90                   	nop
    4a1b:	90                   	nop
    4a1c:	90                   	nop
    4a1d:	90                   	nop
    4a1e:	90                   	nop
    4a1f:	90                   	nop
    4a20:	90                   	nop
    4a21:	90                   	nop
    4a22:	90                   	nop
    4a23:	90                   	nop
    4a24:	90                   	nop
    4a25:	90                   	nop
    4a26:	90                   	nop
    4a27:	90                   	nop
    4a28:	90                   	nop
    4a29:	90                   	nop
    4a2a:	90                   	nop
    4a2b:	90                   	nop
    4a2c:	90                   	nop
    4a2d:	90                   	nop
    4a2e:	90                   	nop
    4a2f:	90                   	nop
    4a30:	90                   	nop
    4a31:	90                   	nop
    4a32:	90                   	nop
    4a33:	90                   	nop
    4a34:	90                   	nop
    4a35:	90                   	nop
    4a36:	90                   	nop
    4a37:	90                   	nop
    4a38:	90                   	nop
    4a39:	90                   	nop
    4a3a:	90                   	nop
    4a3b:	90                   	nop
    4a3c:	90                   	nop
    4a3d:	90                   	nop
    4a3e:	90                   	nop
    4a3f:	90                   	nop
    4a40:	90                   	nop
    4a41:	90                   	nop
    4a42:	90                   	nop
    4a43:	90                   	nop
    4a44:	90                   	nop
    4a45:	90                   	nop
    4a46:	90                   	nop
    4a47:	90                   	nop
    4a48:	90                   	nop
    4a49:	90                   	nop
    4a4a:	90                   	nop
    4a4b:	90                   	nop
    4a4c:	90                   	nop
    4a4d:	90                   	nop
    4a4e:	90                   	nop
    4a4f:	90                   	nop
    4a50:	90                   	nop
    4a51:	90                   	nop
    4a52:	90                   	nop
    4a53:	90                   	nop
    4a54:	90                   	nop
    4a55:	90                   	nop
    4a56:	90                   	nop
    4a57:	90                   	nop
    4a58:	90                   	nop
    4a59:	90                   	nop
    4a5a:	90                   	nop
    4a5b:	90                   	nop
    4a5c:	90                   	nop
    4a5d:	90                   	nop
    4a5e:	90                   	nop
    4a5f:	90                   	nop
    4a60:	90                   	nop
    4a61:	90                   	nop
    4a62:	90                   	nop
    4a63:	90                   	nop
    4a64:	90                   	nop
    4a65:	90                   	nop
    4a66:	90                   	nop
    4a67:	90                   	nop
    4a68:	90                   	nop
    4a69:	90                   	nop
    4a6a:	90                   	nop
    4a6b:	90                   	nop
    4a6c:	90                   	nop
    4a6d:	90                   	nop
    4a6e:	90                   	nop
    4a6f:	90                   	nop
    4a70:	90                   	nop
    4a71:	90                   	nop
    4a72:	90                   	nop
    4a73:	90                   	nop
    4a74:	90                   	nop
    4a75:	90                   	nop
    4a76:	90                   	nop
    4a77:	90                   	nop
    4a78:	90                   	nop
    4a79:	90                   	nop
    4a7a:	90                   	nop
    4a7b:	90                   	nop
    4a7c:	90                   	nop
    4a7d:	90                   	nop
    4a7e:	90                   	nop
    4a7f:	90                   	nop
    4a80:	90                   	nop
    4a81:	90                   	nop
    4a82:	90                   	nop
    4a83:	90                   	nop
    4a84:	90                   	nop
    4a85:	90                   	nop
    4a86:	90                   	nop
    4a87:	90                   	nop
    4a88:	90                   	nop
    4a89:	90                   	nop
    4a8a:	90                   	nop
    4a8b:	90                   	nop
    4a8c:	90                   	nop
    4a8d:	90                   	nop
    4a8e:	90                   	nop
    4a8f:	90                   	nop
    4a90:	90                   	nop
    4a91:	90                   	nop
    4a92:	90                   	nop
    4a93:	90                   	nop
    4a94:	90                   	nop
    4a95:	90                   	nop
    4a96:	90                   	nop
    4a97:	90                   	nop
    4a98:	90                   	nop
    4a99:	90                   	nop
    4a9a:	90                   	nop
    4a9b:	90                   	nop
    4a9c:	90                   	nop
    4a9d:	90                   	nop
    4a9e:	90                   	nop
    4a9f:	90                   	nop
    4aa0:	90                   	nop
    4aa1:	90                   	nop
    4aa2:	90                   	nop
    4aa3:	90                   	nop
    4aa4:	90                   	nop
    4aa5:	90                   	nop
    4aa6:	90                   	nop
    4aa7:	90                   	nop
    4aa8:	90                   	nop
    4aa9:	90                   	nop
    4aaa:	90                   	nop
    4aab:	90                   	nop
    4aac:	90                   	nop
    4aad:	90                   	nop
    4aae:	90                   	nop
    4aaf:	90                   	nop
    4ab0:	90                   	nop
    4ab1:	90                   	nop
    4ab2:	90                   	nop
    4ab3:	90                   	nop
    4ab4:	90                   	nop
    4ab5:	90                   	nop
    4ab6:	90                   	nop
    4ab7:	90                   	nop
    4ab8:	90                   	nop
    4ab9:	90                   	nop
    4aba:	90                   	nop
    4abb:	90                   	nop
    4abc:	90                   	nop
    4abd:	90                   	nop
    4abe:	90                   	nop
    4abf:	90                   	nop
    4ac0:	90                   	nop
    4ac1:	90                   	nop
    4ac2:	90                   	nop
    4ac3:	90                   	nop
    4ac4:	90                   	nop
    4ac5:	90                   	nop
    4ac6:	90                   	nop
    4ac7:	90                   	nop
    4ac8:	90                   	nop
    4ac9:	90                   	nop
    4aca:	90                   	nop
    4acb:	90                   	nop
    4acc:	90                   	nop
    4acd:	90                   	nop
    4ace:	90                   	nop
    4acf:	90                   	nop
    4ad0:	90                   	nop
    4ad1:	90                   	nop
    4ad2:	90                   	nop
    4ad3:	90                   	nop
    4ad4:	90                   	nop
    4ad5:	90                   	nop
    4ad6:	90                   	nop
    4ad7:	90                   	nop
    4ad8:	90                   	nop
    4ad9:	90                   	nop
    4ada:	90                   	nop
    4adb:	90                   	nop
    4adc:	90                   	nop
    4add:	90                   	nop
    4ade:	90                   	nop
    4adf:	90                   	nop
    4ae0:	90                   	nop
    4ae1:	90                   	nop
    4ae2:	90                   	nop
    4ae3:	90                   	nop
    4ae4:	90                   	nop
    4ae5:	90                   	nop
    4ae6:	90                   	nop
    4ae7:	90                   	nop
    4ae8:	90                   	nop
    4ae9:	90                   	nop
    4aea:	90                   	nop
    4aeb:	90                   	nop
    4aec:	90                   	nop
    4aed:	90                   	nop
    4aee:	90                   	nop
    4aef:	90                   	nop
    4af0:	90                   	nop
    4af1:	90                   	nop
    4af2:	90                   	nop
    4af3:	90                   	nop
    4af4:	90                   	nop
    4af5:	90                   	nop
    4af6:	90                   	nop
    4af7:	90                   	nop
    4af8:	90                   	nop
    4af9:	90                   	nop
    4afa:	90                   	nop
    4afb:	90                   	nop
    4afc:	90                   	nop
    4afd:	90                   	nop
    4afe:	90                   	nop
    4aff:	90                   	nop
    4b00:	90                   	nop
    4b01:	90                   	nop
    4b02:	90                   	nop
    4b03:	90                   	nop
    4b04:	90                   	nop
    4b05:	90                   	nop
    4b06:	90                   	nop
    4b07:	90                   	nop
    4b08:	90                   	nop
    4b09:	90                   	nop
    4b0a:	90                   	nop
    4b0b:	90                   	nop
    4b0c:	90                   	nop
    4b0d:	90                   	nop
    4b0e:	90                   	nop
    4b0f:	90                   	nop
    4b10:	90                   	nop
    4b11:	90                   	nop
    4b12:	90                   	nop
    4b13:	90                   	nop
    4b14:	90                   	nop
    4b15:	90                   	nop
    4b16:	90                   	nop
    4b17:	90                   	nop
    4b18:	90                   	nop
    4b19:	90                   	nop
    4b1a:	90                   	nop
    4b1b:	90                   	nop
    4b1c:	90                   	nop
    4b1d:	90                   	nop
    4b1e:	90                   	nop
    4b1f:	90                   	nop
    4b20:	90                   	nop
    4b21:	90                   	nop
    4b22:	90                   	nop
    4b23:	90                   	nop
    4b24:	90                   	nop
    4b25:	90                   	nop
    4b26:	90                   	nop
    4b27:	90                   	nop
    4b28:	90                   	nop
    4b29:	90                   	nop
    4b2a:	90                   	nop
    4b2b:	90                   	nop
    4b2c:	90                   	nop
    4b2d:	90                   	nop
    4b2e:	90                   	nop
    4b2f:	90                   	nop
    4b30:	90                   	nop
    4b31:	90                   	nop
    4b32:	90                   	nop
    4b33:	90                   	nop
    4b34:	90                   	nop
    4b35:	90                   	nop
    4b36:	90                   	nop
    4b37:	90                   	nop
    4b38:	90                   	nop
    4b39:	90                   	nop
    4b3a:	90                   	nop
    4b3b:	90                   	nop
    4b3c:	90                   	nop
    4b3d:	90                   	nop
    4b3e:	90                   	nop
    4b3f:	90                   	nop
    4b40:	90                   	nop
    4b41:	90                   	nop
    4b42:	90                   	nop
    4b43:	90                   	nop
    4b44:	90                   	nop
    4b45:	90                   	nop
    4b46:	90                   	nop
    4b47:	90                   	nop
    4b48:	90                   	nop
    4b49:	90                   	nop
    4b4a:	90                   	nop
    4b4b:	90                   	nop
    4b4c:	90                   	nop
    4b4d:	90                   	nop
    4b4e:	90                   	nop
    4b4f:	90                   	nop
    4b50:	90                   	nop
    4b51:	90                   	nop
    4b52:	90                   	nop
    4b53:	90                   	nop
    4b54:	90                   	nop
    4b55:	90                   	nop
    4b56:	90                   	nop
    4b57:	90                   	nop
    4b58:	90                   	nop
    4b59:	90                   	nop
    4b5a:	90                   	nop
    4b5b:	90                   	nop
    4b5c:	90                   	nop
    4b5d:	90                   	nop
    4b5e:	90                   	nop
    4b5f:	90                   	nop
    4b60:	90                   	nop
    4b61:	90                   	nop
    4b62:	90                   	nop
    4b63:	90                   	nop
    4b64:	90                   	nop
    4b65:	90                   	nop
    4b66:	90                   	nop
    4b67:	90                   	nop
    4b68:	90                   	nop
    4b69:	90                   	nop
    4b6a:	90                   	nop
    4b6b:	90                   	nop
    4b6c:	90                   	nop
    4b6d:	90                   	nop
    4b6e:	90                   	nop
    4b6f:	90                   	nop
    4b70:	90                   	nop
    4b71:	90                   	nop
    4b72:	90                   	nop
    4b73:	90                   	nop
    4b74:	90                   	nop
    4b75:	90                   	nop
    4b76:	90                   	nop
    4b77:	90                   	nop
    4b78:	90                   	nop
    4b79:	90                   	nop
    4b7a:	90                   	nop
    4b7b:	90                   	nop
    4b7c:	90                   	nop
    4b7d:	90                   	nop
    4b7e:	90                   	nop
    4b7f:	90                   	nop
    4b80:	90                   	nop
    4b81:	90                   	nop
    4b82:	90                   	nop
    4b83:	90                   	nop
    4b84:	90                   	nop
    4b85:	90                   	nop
    4b86:	90                   	nop
    4b87:	90                   	nop
    4b88:	90                   	nop
    4b89:	90                   	nop
    4b8a:	90                   	nop
    4b8b:	90                   	nop
    4b8c:	90                   	nop
    4b8d:	90                   	nop
    4b8e:	90                   	nop
    4b8f:	90                   	nop
    4b90:	90                   	nop
    4b91:	90                   	nop
    4b92:	90                   	nop
    4b93:	90                   	nop
    4b94:	90                   	nop
    4b95:	90                   	nop
    4b96:	90                   	nop
    4b97:	90                   	nop
    4b98:	90                   	nop
    4b99:	90                   	nop
    4b9a:	90                   	nop
    4b9b:	90                   	nop
    4b9c:	90                   	nop
    4b9d:	90                   	nop
    4b9e:	90                   	nop
    4b9f:	90                   	nop
    4ba0:	90                   	nop
    4ba1:	90                   	nop
    4ba2:	90                   	nop
    4ba3:	90                   	nop
    4ba4:	90                   	nop
    4ba5:	90                   	nop
    4ba6:	90                   	nop
    4ba7:	90                   	nop
    4ba8:	90                   	nop
    4ba9:	90                   	nop
    4baa:	90                   	nop
    4bab:	90                   	nop
    4bac:	90                   	nop
    4bad:	90                   	nop
    4bae:	90                   	nop
    4baf:	90                   	nop
    4bb0:	90                   	nop
    4bb1:	90                   	nop
    4bb2:	90                   	nop
    4bb3:	90                   	nop
    4bb4:	90                   	nop
    4bb5:	90                   	nop
    4bb6:	90                   	nop
    4bb7:	90                   	nop
    4bb8:	90                   	nop
    4bb9:	90                   	nop
    4bba:	90                   	nop
    4bbb:	90                   	nop
    4bbc:	90                   	nop
    4bbd:	90                   	nop
    4bbe:	90                   	nop
    4bbf:	90                   	nop
    4bc0:	90                   	nop
    4bc1:	90                   	nop
    4bc2:	90                   	nop
    4bc3:	90                   	nop
    4bc4:	90                   	nop
    4bc5:	90                   	nop
    4bc6:	90                   	nop
    4bc7:	90                   	nop
    4bc8:	90                   	nop
    4bc9:	90                   	nop
    4bca:	90                   	nop
    4bcb:	90                   	nop
    4bcc:	90                   	nop
    4bcd:	90                   	nop
    4bce:	90                   	nop
    4bcf:	90                   	nop
    4bd0:	90                   	nop
    4bd1:	90                   	nop
    4bd2:	90                   	nop
    4bd3:	90                   	nop
    4bd4:	90                   	nop
    4bd5:	90                   	nop
    4bd6:	90                   	nop
    4bd7:	90                   	nop
    4bd8:	90                   	nop
    4bd9:	90                   	nop
    4bda:	90                   	nop
    4bdb:	90                   	nop
    4bdc:	90                   	nop
    4bdd:	90                   	nop
    4bde:	90                   	nop
    4bdf:	90                   	nop
    4be0:	90                   	nop
    4be1:	90                   	nop
    4be2:	90                   	nop
    4be3:	90                   	nop
    4be4:	90                   	nop
    4be5:	90                   	nop
    4be6:	90                   	nop
    4be7:	90                   	nop
    4be8:	90                   	nop
    4be9:	90                   	nop
    4bea:	90                   	nop
    4beb:	90                   	nop
    4bec:	90                   	nop
    4bed:	90                   	nop
    4bee:	90                   	nop
    4bef:	90                   	nop
    4bf0:	90                   	nop
    4bf1:	90                   	nop
    4bf2:	90                   	nop
    4bf3:	90                   	nop
    4bf4:	90                   	nop
    4bf5:	90                   	nop
    4bf6:	90                   	nop
    4bf7:	90                   	nop
    4bf8:	90                   	nop
    4bf9:	90                   	nop
    4bfa:	90                   	nop
    4bfb:	90                   	nop
    4bfc:	90                   	nop
    4bfd:	90                   	nop
    4bfe:	90                   	nop
    4bff:	90                   	nop
    4c00:	90                   	nop
    4c01:	90                   	nop
    4c02:	90                   	nop
    4c03:	90                   	nop
    4c04:	90                   	nop
    4c05:	90                   	nop
    4c06:	90                   	nop
    4c07:	90                   	nop
    4c08:	90                   	nop
    4c09:	90                   	nop
    4c0a:	90                   	nop
    4c0b:	90                   	nop
    4c0c:	90                   	nop
    4c0d:	90                   	nop
    4c0e:	90                   	nop
    4c0f:	90                   	nop
    4c10:	90                   	nop
    4c11:	90                   	nop
    4c12:	90                   	nop
    4c13:	90                   	nop
    4c14:	90                   	nop
    4c15:	90                   	nop
    4c16:	90                   	nop
    4c17:	90                   	nop
    4c18:	90                   	nop
    4c19:	90                   	nop
    4c1a:	90                   	nop
    4c1b:	90                   	nop
    4c1c:	90                   	nop
    4c1d:	90                   	nop
    4c1e:	90                   	nop
    4c1f:	90                   	nop
    4c20:	90                   	nop
    4c21:	90                   	nop
    4c22:	90                   	nop
    4c23:	90                   	nop
    4c24:	90                   	nop
    4c25:	90                   	nop
    4c26:	90                   	nop
    4c27:	90                   	nop
    4c28:	90                   	nop
    4c29:	90                   	nop
    4c2a:	90                   	nop
    4c2b:	90                   	nop
    4c2c:	90                   	nop
    4c2d:	90                   	nop
    4c2e:	90                   	nop
    4c2f:	90                   	nop
    4c30:	90                   	nop
    4c31:	90                   	nop
    4c32:	90                   	nop
    4c33:	90                   	nop
    4c34:	90                   	nop
    4c35:	90                   	nop
    4c36:	90                   	nop
    4c37:	90                   	nop
    4c38:	90                   	nop
    4c39:	90                   	nop
    4c3a:	90                   	nop
    4c3b:	90                   	nop
    4c3c:	90                   	nop
    4c3d:	90                   	nop
    4c3e:	90                   	nop
    4c3f:	90                   	nop
    4c40:	90                   	nop
    4c41:	90                   	nop
    4c42:	90                   	nop
    4c43:	90                   	nop
    4c44:	90                   	nop
    4c45:	90                   	nop
    4c46:	90                   	nop
    4c47:	90                   	nop
    4c48:	90                   	nop
    4c49:	90                   	nop
    4c4a:	90                   	nop
    4c4b:	90                   	nop
    4c4c:	90                   	nop
    4c4d:	90                   	nop
    4c4e:	90                   	nop
    4c4f:	90                   	nop
    4c50:	90                   	nop
    4c51:	90                   	nop
    4c52:	90                   	nop
    4c53:	90                   	nop
    4c54:	90                   	nop
    4c55:	90                   	nop
    4c56:	90                   	nop
    4c57:	90                   	nop
    4c58:	90                   	nop
    4c59:	90                   	nop
    4c5a:	90                   	nop
    4c5b:	90                   	nop
    4c5c:	90                   	nop
    4c5d:	90                   	nop
    4c5e:	90                   	nop
    4c5f:	90                   	nop
    4c60:	90                   	nop
    4c61:	90                   	nop
    4c62:	90                   	nop
    4c63:	90                   	nop
    4c64:	90                   	nop
    4c65:	90                   	nop
    4c66:	90                   	nop
    4c67:	90                   	nop
    4c68:	90                   	nop
    4c69:	90                   	nop
    4c6a:	90                   	nop
    4c6b:	90                   	nop
    4c6c:	90                   	nop
    4c6d:	90                   	nop
    4c6e:	90                   	nop
    4c6f:	90                   	nop
    4c70:	90                   	nop
    4c71:	90                   	nop
    4c72:	90                   	nop
    4c73:	90                   	nop
    4c74:	90                   	nop
    4c75:	90                   	nop
    4c76:	90                   	nop
    4c77:	90                   	nop
    4c78:	90                   	nop
    4c79:	90                   	nop
    4c7a:	90                   	nop
    4c7b:	90                   	nop
    4c7c:	90                   	nop
    4c7d:	90                   	nop
    4c7e:	90                   	nop
    4c7f:	90                   	nop
    4c80:	90                   	nop
    4c81:	90                   	nop
    4c82:	90                   	nop
    4c83:	90                   	nop
    4c84:	90                   	nop
    4c85:	90                   	nop
    4c86:	90                   	nop
    4c87:	90                   	nop
    4c88:	90                   	nop
    4c89:	90                   	nop
    4c8a:	90                   	nop
    4c8b:	90                   	nop
    4c8c:	90                   	nop
    4c8d:	90                   	nop
    4c8e:	90                   	nop
    4c8f:	90                   	nop
    4c90:	90                   	nop
    4c91:	90                   	nop
    4c92:	90                   	nop
    4c93:	90                   	nop
    4c94:	90                   	nop
    4c95:	90                   	nop
    4c96:	90                   	nop
    4c97:	90                   	nop
    4c98:	90                   	nop
    4c99:	90                   	nop
    4c9a:	90                   	nop
    4c9b:	90                   	nop
    4c9c:	90                   	nop
    4c9d:	90                   	nop
    4c9e:	90                   	nop
    4c9f:	90                   	nop
    4ca0:	90                   	nop
    4ca1:	90                   	nop
    4ca2:	90                   	nop
    4ca3:	90                   	nop
    4ca4:	90                   	nop
    4ca5:	90                   	nop
    4ca6:	90                   	nop
    4ca7:	90                   	nop
    4ca8:	90                   	nop
    4ca9:	90                   	nop
    4caa:	90                   	nop
    4cab:	90                   	nop
    4cac:	90                   	nop
    4cad:	90                   	nop
    4cae:	90                   	nop
    4caf:	90                   	nop
    4cb0:	90                   	nop
    4cb1:	90                   	nop
    4cb2:	90                   	nop
    4cb3:	90                   	nop
    4cb4:	90                   	nop
    4cb5:	90                   	nop
    4cb6:	90                   	nop
    4cb7:	90                   	nop
    4cb8:	90                   	nop
    4cb9:	90                   	nop
    4cba:	90                   	nop
    4cbb:	90                   	nop
    4cbc:	90                   	nop
    4cbd:	90                   	nop
    4cbe:	90                   	nop
    4cbf:	90                   	nop
    4cc0:	90                   	nop
    4cc1:	90                   	nop
    4cc2:	90                   	nop
    4cc3:	90                   	nop
    4cc4:	90                   	nop
    4cc5:	90                   	nop
    4cc6:	90                   	nop
    4cc7:	90                   	nop
    4cc8:	90                   	nop
    4cc9:	90                   	nop
    4cca:	90                   	nop
    4ccb:	90                   	nop
    4ccc:	90                   	nop
    4ccd:	90                   	nop
    4cce:	90                   	nop
    4ccf:	90                   	nop
    4cd0:	90                   	nop
    4cd1:	90                   	nop
    4cd2:	90                   	nop
    4cd3:	90                   	nop
    4cd4:	90                   	nop
    4cd5:	90                   	nop
    4cd6:	90                   	nop
    4cd7:	90                   	nop
    4cd8:	90                   	nop
    4cd9:	90                   	nop
    4cda:	90                   	nop
    4cdb:	90                   	nop
    4cdc:	90                   	nop
    4cdd:	90                   	nop
    4cde:	90                   	nop
    4cdf:	90                   	nop
    4ce0:	90                   	nop
    4ce1:	90                   	nop
    4ce2:	90                   	nop
    4ce3:	90                   	nop
    4ce4:	90                   	nop
    4ce5:	90                   	nop
    4ce6:	90                   	nop
    4ce7:	90                   	nop
    4ce8:	90                   	nop
    4ce9:	90                   	nop
    4cea:	90                   	nop
    4ceb:	90                   	nop
    4cec:	90                   	nop
    4ced:	90                   	nop
    4cee:	90                   	nop
    4cef:	90                   	nop
    4cf0:	90                   	nop
    4cf1:	90                   	nop
    4cf2:	90                   	nop
    4cf3:	90                   	nop
    4cf4:	90                   	nop
    4cf5:	90                   	nop
    4cf6:	90                   	nop
    4cf7:	90                   	nop
    4cf8:	90                   	nop
    4cf9:	90                   	nop
    4cfa:	90                   	nop
    4cfb:	90                   	nop
    4cfc:	90                   	nop
    4cfd:	90                   	nop
    4cfe:	90                   	nop
    4cff:	90                   	nop
    4d00:	90                   	nop
    4d01:	90                   	nop
    4d02:	90                   	nop
    4d03:	90                   	nop
    4d04:	90                   	nop
    4d05:	90                   	nop
    4d06:	90                   	nop
    4d07:	90                   	nop
    4d08:	90                   	nop
    4d09:	90                   	nop
    4d0a:	90                   	nop
    4d0b:	90                   	nop
    4d0c:	90                   	nop
    4d0d:	90                   	nop
    4d0e:	90                   	nop
    4d0f:	90                   	nop
    4d10:	90                   	nop
    4d11:	90                   	nop
    4d12:	90                   	nop
    4d13:	90                   	nop
    4d14:	90                   	nop
    4d15:	90                   	nop
    4d16:	90                   	nop
    4d17:	90                   	nop
    4d18:	90                   	nop
    4d19:	90                   	nop
    4d1a:	90                   	nop
    4d1b:	90                   	nop
    4d1c:	90                   	nop
    4d1d:	90                   	nop
    4d1e:	90                   	nop
    4d1f:	90                   	nop
    4d20:	90                   	nop
    4d21:	90                   	nop
    4d22:	90                   	nop
    4d23:	90                   	nop
    4d24:	90                   	nop
    4d25:	90                   	nop
    4d26:	90                   	nop
    4d27:	90                   	nop
    4d28:	90                   	nop
    4d29:	90                   	nop
    4d2a:	90                   	nop
    4d2b:	90                   	nop
    4d2c:	90                   	nop
    4d2d:	90                   	nop
    4d2e:	90                   	nop
    4d2f:	90                   	nop
    4d30:	90                   	nop
    4d31:	90                   	nop
    4d32:	90                   	nop
    4d33:	90                   	nop
    4d34:	90                   	nop
    4d35:	90                   	nop
    4d36:	90                   	nop
    4d37:	90                   	nop
    4d38:	90                   	nop
    4d39:	90                   	nop
    4d3a:	90                   	nop
    4d3b:	90                   	nop
    4d3c:	90                   	nop
    4d3d:	90                   	nop
    4d3e:	90                   	nop
    4d3f:	90                   	nop
    4d40:	90                   	nop
    4d41:	90                   	nop
    4d42:	90                   	nop
    4d43:	90                   	nop
    4d44:	90                   	nop
    4d45:	90                   	nop
    4d46:	90                   	nop
    4d47:	90                   	nop
    4d48:	90                   	nop
    4d49:	90                   	nop
    4d4a:	90                   	nop
    4d4b:	90                   	nop
    4d4c:	90                   	nop
    4d4d:	90                   	nop
    4d4e:	90                   	nop
    4d4f:	90                   	nop
    4d50:	90                   	nop
    4d51:	90                   	nop
    4d52:	90                   	nop
    4d53:	90                   	nop
    4d54:	90                   	nop
    4d55:	90                   	nop
    4d56:	90                   	nop
    4d57:	90                   	nop
    4d58:	90                   	nop
    4d59:	90                   	nop
    4d5a:	90                   	nop
    4d5b:	90                   	nop
    4d5c:	90                   	nop
    4d5d:	90                   	nop
    4d5e:	90                   	nop
    4d5f:	90                   	nop
    4d60:	90                   	nop
    4d61:	90                   	nop
    4d62:	90                   	nop
    4d63:	90                   	nop
    4d64:	90                   	nop
    4d65:	90                   	nop
    4d66:	90                   	nop
    4d67:	90                   	nop
    4d68:	90                   	nop
    4d69:	90                   	nop
    4d6a:	90                   	nop
    4d6b:	90                   	nop
    4d6c:	90                   	nop
    4d6d:	90                   	nop
    4d6e:	90                   	nop
    4d6f:	90                   	nop
    4d70:	90                   	nop
    4d71:	90                   	nop
    4d72:	90                   	nop
    4d73:	90                   	nop
    4d74:	90                   	nop
    4d75:	90                   	nop
    4d76:	90                   	nop
    4d77:	90                   	nop
    4d78:	90                   	nop
    4d79:	90                   	nop
    4d7a:	90                   	nop
    4d7b:	90                   	nop
    4d7c:	90                   	nop
    4d7d:	90                   	nop
    4d7e:	90                   	nop
    4d7f:	90                   	nop
    4d80:	90                   	nop
    4d81:	90                   	nop
    4d82:	90                   	nop
    4d83:	90                   	nop
    4d84:	90                   	nop
    4d85:	90                   	nop
    4d86:	90                   	nop
    4d87:	90                   	nop
    4d88:	90                   	nop
    4d89:	90                   	nop
    4d8a:	90                   	nop
    4d8b:	90                   	nop
    4d8c:	90                   	nop
    4d8d:	90                   	nop
    4d8e:	90                   	nop
    4d8f:	90                   	nop
    4d90:	90                   	nop
    4d91:	90                   	nop
    4d92:	90                   	nop
    4d93:	90                   	nop
    4d94:	90                   	nop
    4d95:	90                   	nop
    4d96:	90                   	nop
    4d97:	90                   	nop
    4d98:	90                   	nop
    4d99:	90                   	nop
    4d9a:	90                   	nop
    4d9b:	90                   	nop
    4d9c:	90                   	nop
    4d9d:	90                   	nop
    4d9e:	90                   	nop
    4d9f:	90                   	nop
    4da0:	90                   	nop
    4da1:	90                   	nop
    4da2:	90                   	nop
    4da3:	90                   	nop
    4da4:	90                   	nop
    4da5:	90                   	nop
    4da6:	90                   	nop
    4da7:	90                   	nop
    4da8:	90                   	nop
    4da9:	90                   	nop
    4daa:	90                   	nop
    4dab:	90                   	nop
    4dac:	90                   	nop
    4dad:	90                   	nop
    4dae:	90                   	nop
    4daf:	90                   	nop
    4db0:	90                   	nop
    4db1:	90                   	nop
    4db2:	90                   	nop
    4db3:	90                   	nop
    4db4:	90                   	nop
    4db5:	90                   	nop
    4db6:	90                   	nop
    4db7:	90                   	nop
    4db8:	90                   	nop
    4db9:	90                   	nop
    4dba:	90                   	nop
    4dbb:	90                   	nop
    4dbc:	90                   	nop
    4dbd:	90                   	nop
    4dbe:	90                   	nop
    4dbf:	90                   	nop
    4dc0:	90                   	nop
    4dc1:	90                   	nop
    4dc2:	90                   	nop
    4dc3:	90                   	nop
    4dc4:	90                   	nop
    4dc5:	90                   	nop
    4dc6:	90                   	nop
    4dc7:	90                   	nop
    4dc8:	90                   	nop
    4dc9:	90                   	nop
    4dca:	90                   	nop
    4dcb:	90                   	nop
    4dcc:	90                   	nop
    4dcd:	90                   	nop
    4dce:	90                   	nop
    4dcf:	90                   	nop
    4dd0:	90                   	nop
    4dd1:	90                   	nop
    4dd2:	90                   	nop
    4dd3:	90                   	nop
    4dd4:	90                   	nop
    4dd5:	90                   	nop
    4dd6:	90                   	nop
    4dd7:	90                   	nop
    4dd8:	90                   	nop
    4dd9:	90                   	nop
    4dda:	90                   	nop
    4ddb:	90                   	nop
    4ddc:	90                   	nop
    4ddd:	90                   	nop
    4dde:	90                   	nop
    4ddf:	90                   	nop
    4de0:	90                   	nop
    4de1:	90                   	nop
    4de2:	90                   	nop
    4de3:	90                   	nop
    4de4:	90                   	nop
    4de5:	90                   	nop
    4de6:	90                   	nop
    4de7:	90                   	nop
    4de8:	90                   	nop
    4de9:	90                   	nop
    4dea:	90                   	nop
    4deb:	90                   	nop
    4dec:	90                   	nop
    4ded:	90                   	nop
    4dee:	90                   	nop
    4def:	90                   	nop
    4df0:	90                   	nop
    4df1:	90                   	nop
    4df2:	90                   	nop
    4df3:	90                   	nop
    4df4:	90                   	nop
    4df5:	90                   	nop
    4df6:	90                   	nop
    4df7:	90                   	nop
    4df8:	90                   	nop
    4df9:	90                   	nop
    4dfa:	90                   	nop
    4dfb:	90                   	nop
    4dfc:	90                   	nop
    4dfd:	90                   	nop
    4dfe:	90                   	nop
    4dff:	90                   	nop
    4e00:	90                   	nop
    4e01:	90                   	nop
    4e02:	90                   	nop
    4e03:	90                   	nop
    4e04:	90                   	nop
    4e05:	90                   	nop
    4e06:	90                   	nop
    4e07:	90                   	nop
    4e08:	90                   	nop
    4e09:	90                   	nop
    4e0a:	90                   	nop
    4e0b:	90                   	nop
    4e0c:	90                   	nop
    4e0d:	90                   	nop
    4e0e:	90                   	nop
    4e0f:	90                   	nop
    4e10:	90                   	nop
    4e11:	90                   	nop
    4e12:	90                   	nop
    4e13:	90                   	nop
    4e14:	90                   	nop
    4e15:	90                   	nop
    4e16:	90                   	nop
    4e17:	90                   	nop
    4e18:	90                   	nop
    4e19:	90                   	nop
    4e1a:	90                   	nop
    4e1b:	90                   	nop
    4e1c:	90                   	nop
    4e1d:	90                   	nop
    4e1e:	90                   	nop
    4e1f:	90                   	nop
    4e20:	90                   	nop
    4e21:	90                   	nop
    4e22:	90                   	nop
    4e23:	90                   	nop
    4e24:	90                   	nop
    4e25:	90                   	nop
    4e26:	90                   	nop
    4e27:	90                   	nop
    4e28:	90                   	nop
    4e29:	90                   	nop
    4e2a:	90                   	nop
    4e2b:	90                   	nop
    4e2c:	90                   	nop
    4e2d:	90                   	nop
    4e2e:	90                   	nop
    4e2f:	90                   	nop
    4e30:	90                   	nop
    4e31:	90                   	nop
    4e32:	90                   	nop
    4e33:	90                   	nop
    4e34:	90                   	nop
    4e35:	90                   	nop
    4e36:	90                   	nop
    4e37:	90                   	nop
    4e38:	90                   	nop
    4e39:	90                   	nop
    4e3a:	90                   	nop
    4e3b:	90                   	nop
    4e3c:	90                   	nop
    4e3d:	90                   	nop
    4e3e:	90                   	nop
    4e3f:	90                   	nop
    4e40:	90                   	nop
    4e41:	90                   	nop
    4e42:	90                   	nop
    4e43:	90                   	nop
    4e44:	90                   	nop
    4e45:	90                   	nop
    4e46:	90                   	nop
    4e47:	90                   	nop
    4e48:	90                   	nop
    4e49:	90                   	nop
    4e4a:	90                   	nop
    4e4b:	90                   	nop
    4e4c:	90                   	nop
    4e4d:	90                   	nop
    4e4e:	90                   	nop
    4e4f:	90                   	nop
    4e50:	90                   	nop
    4e51:	90                   	nop
    4e52:	90                   	nop
    4e53:	90                   	nop
    4e54:	90                   	nop
    4e55:	90                   	nop
    4e56:	90                   	nop
    4e57:	90                   	nop
    4e58:	90                   	nop
    4e59:	90                   	nop
    4e5a:	90                   	nop
    4e5b:	90                   	nop
    4e5c:	90                   	nop
    4e5d:	90                   	nop
    4e5e:	90                   	nop
    4e5f:	90                   	nop
    4e60:	90                   	nop
    4e61:	90                   	nop
    4e62:	90                   	nop
    4e63:	90                   	nop
    4e64:	90                   	nop
    4e65:	90                   	nop
    4e66:	90                   	nop
    4e67:	90                   	nop
    4e68:	90                   	nop
    4e69:	90                   	nop
    4e6a:	90                   	nop
    4e6b:	90                   	nop
    4e6c:	90                   	nop
    4e6d:	90                   	nop
    4e6e:	90                   	nop
    4e6f:	90                   	nop
    4e70:	90                   	nop
    4e71:	90                   	nop
    4e72:	90                   	nop
    4e73:	90                   	nop
    4e74:	90                   	nop
    4e75:	90                   	nop
    4e76:	90                   	nop
    4e77:	90                   	nop
    4e78:	90                   	nop
    4e79:	90                   	nop
    4e7a:	90                   	nop
    4e7b:	90                   	nop
    4e7c:	90                   	nop
    4e7d:	90                   	nop
    4e7e:	90                   	nop
    4e7f:	90                   	nop
    4e80:	90                   	nop
    4e81:	90                   	nop
    4e82:	90                   	nop
    4e83:	90                   	nop
    4e84:	90                   	nop
    4e85:	90                   	nop
    4e86:	90                   	nop
    4e87:	90                   	nop
    4e88:	90                   	nop
    4e89:	90                   	nop
    4e8a:	90                   	nop
    4e8b:	90                   	nop
    4e8c:	90                   	nop
    4e8d:	90                   	nop
    4e8e:	90                   	nop
    4e8f:	90                   	nop
    4e90:	90                   	nop
    4e91:	90                   	nop
    4e92:	90                   	nop
    4e93:	90                   	nop
    4e94:	90                   	nop
    4e95:	90                   	nop
    4e96:	90                   	nop
    4e97:	90                   	nop
    4e98:	90                   	nop
    4e99:	90                   	nop
    4e9a:	90                   	nop
    4e9b:	90                   	nop
    4e9c:	90                   	nop
    4e9d:	90                   	nop
    4e9e:	90                   	nop
    4e9f:	90                   	nop
    4ea0:	90                   	nop
    4ea1:	90                   	nop
    4ea2:	90                   	nop
    4ea3:	90                   	nop
    4ea4:	90                   	nop
    4ea5:	90                   	nop
    4ea6:	90                   	nop
    4ea7:	90                   	nop
    4ea8:	90                   	nop
    4ea9:	90                   	nop
    4eaa:	90                   	nop
    4eab:	90                   	nop
    4eac:	90                   	nop
    4ead:	90                   	nop
    4eae:	90                   	nop
    4eaf:	90                   	nop
    4eb0:	90                   	nop
    4eb1:	90                   	nop
    4eb2:	90                   	nop
    4eb3:	90                   	nop
    4eb4:	90                   	nop
    4eb5:	90                   	nop
    4eb6:	90                   	nop
    4eb7:	90                   	nop
    4eb8:	90                   	nop
    4eb9:	90                   	nop
    4eba:	90                   	nop
    4ebb:	90                   	nop
    4ebc:	90                   	nop
    4ebd:	90                   	nop
    4ebe:	90                   	nop
    4ebf:	90                   	nop
    4ec0:	90                   	nop
    4ec1:	90                   	nop
    4ec2:	90                   	nop
    4ec3:	90                   	nop
    4ec4:	90                   	nop
    4ec5:	90                   	nop
    4ec6:	90                   	nop
    4ec7:	90                   	nop
    4ec8:	90                   	nop
    4ec9:	90                   	nop
    4eca:	90                   	nop
    4ecb:	90                   	nop
    4ecc:	90                   	nop
    4ecd:	90                   	nop
    4ece:	90                   	nop
    4ecf:	90                   	nop
    4ed0:	90                   	nop
    4ed1:	90                   	nop
    4ed2:	90                   	nop
    4ed3:	90                   	nop
    4ed4:	90                   	nop
    4ed5:	90                   	nop
    4ed6:	90                   	nop
    4ed7:	90                   	nop
    4ed8:	90                   	nop
    4ed9:	90                   	nop
    4eda:	90                   	nop
    4edb:	90                   	nop
    4edc:	90                   	nop
    4edd:	90                   	nop
    4ede:	90                   	nop
    4edf:	90                   	nop
    4ee0:	90                   	nop
    4ee1:	90                   	nop
    4ee2:	90                   	nop
    4ee3:	90                   	nop
    4ee4:	90                   	nop
    4ee5:	90                   	nop
    4ee6:	90                   	nop
    4ee7:	90                   	nop
    4ee8:	90                   	nop
    4ee9:	90                   	nop
    4eea:	90                   	nop
    4eeb:	90                   	nop
    4eec:	90                   	nop
    4eed:	90                   	nop
    4eee:	90                   	nop
    4eef:	90                   	nop
    4ef0:	90                   	nop
    4ef1:	90                   	nop
    4ef2:	90                   	nop
    4ef3:	90                   	nop
    4ef4:	90                   	nop
    4ef5:	90                   	nop
    4ef6:	90                   	nop
    4ef7:	90                   	nop
    4ef8:	90                   	nop
    4ef9:	90                   	nop
    4efa:	90                   	nop
    4efb:	90                   	nop
    4efc:	90                   	nop
    4efd:	90                   	nop
    4efe:	90                   	nop
    4eff:	90                   	nop
    4f00:	90                   	nop
    4f01:	90                   	nop
    4f02:	90                   	nop
    4f03:	90                   	nop
    4f04:	90                   	nop
    4f05:	90                   	nop
    4f06:	90                   	nop
    4f07:	90                   	nop
    4f08:	90                   	nop
    4f09:	90                   	nop
    4f0a:	90                   	nop
    4f0b:	90                   	nop
    4f0c:	90                   	nop
    4f0d:	90                   	nop
    4f0e:	90                   	nop
    4f0f:	90                   	nop
    4f10:	90                   	nop
    4f11:	90                   	nop
    4f12:	90                   	nop
    4f13:	90                   	nop
    4f14:	90                   	nop
    4f15:	90                   	nop
    4f16:	90                   	nop
    4f17:	90                   	nop
    4f18:	90                   	nop
    4f19:	90                   	nop
    4f1a:	90                   	nop
    4f1b:	90                   	nop
    4f1c:	90                   	nop
    4f1d:	90                   	nop
    4f1e:	90                   	nop
    4f1f:	90                   	nop
    4f20:	90                   	nop
    4f21:	90                   	nop
    4f22:	90                   	nop
    4f23:	90                   	nop
    4f24:	90                   	nop
    4f25:	90                   	nop
    4f26:	90                   	nop
    4f27:	90                   	nop
    4f28:	90                   	nop
    4f29:	90                   	nop
    4f2a:	90                   	nop
    4f2b:	90                   	nop
    4f2c:	90                   	nop
    4f2d:	90                   	nop
    4f2e:	90                   	nop
    4f2f:	90                   	nop
    4f30:	90                   	nop
    4f31:	90                   	nop
    4f32:	90                   	nop
    4f33:	90                   	nop
    4f34:	90                   	nop
    4f35:	90                   	nop
    4f36:	90                   	nop
    4f37:	90                   	nop
    4f38:	90                   	nop
    4f39:	90                   	nop
    4f3a:	90                   	nop
    4f3b:	90                   	nop
    4f3c:	90                   	nop
    4f3d:	90                   	nop
    4f3e:	90                   	nop
    4f3f:	90                   	nop
    4f40:	90                   	nop
    4f41:	90                   	nop
    4f42:	90                   	nop
    4f43:	90                   	nop
    4f44:	90                   	nop
    4f45:	90                   	nop
    4f46:	90                   	nop
    4f47:	90                   	nop
    4f48:	90                   	nop
    4f49:	90                   	nop
    4f4a:	90                   	nop
    4f4b:	90                   	nop
    4f4c:	90                   	nop
    4f4d:	90                   	nop
    4f4e:	90                   	nop
    4f4f:	90                   	nop
    4f50:	90                   	nop
    4f51:	90                   	nop
    4f52:	90                   	nop
    4f53:	90                   	nop
    4f54:	90                   	nop
    4f55:	90                   	nop
    4f56:	90                   	nop
    4f57:	90                   	nop
    4f58:	90                   	nop
    4f59:	90                   	nop
    4f5a:	90                   	nop
    4f5b:	90                   	nop
    4f5c:	90                   	nop
    4f5d:	90                   	nop
    4f5e:	90                   	nop
    4f5f:	90                   	nop
    4f60:	90                   	nop
    4f61:	90                   	nop
    4f62:	90                   	nop
    4f63:	90                   	nop
    4f64:	90                   	nop
    4f65:	90                   	nop
    4f66:	90                   	nop
    4f67:	90                   	nop
    4f68:	90                   	nop
    4f69:	90                   	nop
    4f6a:	90                   	nop
    4f6b:	90                   	nop
    4f6c:	90                   	nop
    4f6d:	90                   	nop
    4f6e:	90                   	nop
    4f6f:	90                   	nop
    4f70:	90                   	nop
    4f71:	90                   	nop
    4f72:	90                   	nop
    4f73:	90                   	nop
    4f74:	90                   	nop
    4f75:	90                   	nop
    4f76:	90                   	nop
    4f77:	90                   	nop
    4f78:	90                   	nop
    4f79:	90                   	nop
    4f7a:	90                   	nop
    4f7b:	90                   	nop
    4f7c:	90                   	nop
    4f7d:	90                   	nop
    4f7e:	90                   	nop
    4f7f:	90                   	nop
    4f80:	90                   	nop
    4f81:	90                   	nop
    4f82:	90                   	nop
    4f83:	90                   	nop
    4f84:	90                   	nop
    4f85:	90                   	nop
    4f86:	90                   	nop
    4f87:	90                   	nop
    4f88:	90                   	nop
    4f89:	90                   	nop
    4f8a:	90                   	nop
    4f8b:	90                   	nop
    4f8c:	90                   	nop
    4f8d:	90                   	nop
    4f8e:	90                   	nop
    4f8f:	90                   	nop
    4f90:	90                   	nop
    4f91:	90                   	nop
    4f92:	90                   	nop
    4f93:	90                   	nop
    4f94:	90                   	nop
    4f95:	90                   	nop
    4f96:	90                   	nop
    4f97:	90                   	nop
    4f98:	90                   	nop
    4f99:	90                   	nop
    4f9a:	90                   	nop
    4f9b:	90                   	nop
    4f9c:	90                   	nop
    4f9d:	90                   	nop
    4f9e:	90                   	nop
    4f9f:	90                   	nop
    4fa0:	90                   	nop
    4fa1:	90                   	nop
    4fa2:	90                   	nop
    4fa3:	90                   	nop
    4fa4:	90                   	nop
    4fa5:	90                   	nop
    4fa6:	90                   	nop
    4fa7:	90                   	nop
    4fa8:	90                   	nop
    4fa9:	90                   	nop
    4faa:	90                   	nop
    4fab:	90                   	nop
    4fac:	90                   	nop
    4fad:	90                   	nop
    4fae:	90                   	nop
    4faf:	90                   	nop
    4fb0:	90                   	nop
    4fb1:	90                   	nop
    4fb2:	90                   	nop
    4fb3:	90                   	nop
    4fb4:	90                   	nop
    4fb5:	90                   	nop
    4fb6:	90                   	nop
    4fb7:	90                   	nop
    4fb8:	90                   	nop
    4fb9:	90                   	nop
    4fba:	90                   	nop
    4fbb:	90                   	nop
    4fbc:	90                   	nop
    4fbd:	90                   	nop
    4fbe:	90                   	nop
    4fbf:	90                   	nop
    4fc0:	90                   	nop
    4fc1:	90                   	nop
    4fc2:	90                   	nop
    4fc3:	90                   	nop
    4fc4:	90                   	nop
    4fc5:	90                   	nop
    4fc6:	90                   	nop
    4fc7:	90                   	nop
    4fc8:	90                   	nop
    4fc9:	90                   	nop
    4fca:	90                   	nop
    4fcb:	90                   	nop
    4fcc:	90                   	nop
    4fcd:	90                   	nop
    4fce:	90                   	nop
    4fcf:	90                   	nop
    4fd0:	90                   	nop
    4fd1:	90                   	nop
    4fd2:	90                   	nop
    4fd3:	90                   	nop
    4fd4:	90                   	nop
    4fd5:	90                   	nop
    4fd6:	90                   	nop
    4fd7:	90                   	nop
    4fd8:	90                   	nop
    4fd9:	90                   	nop
    4fda:	90                   	nop
    4fdb:	90                   	nop
    4fdc:	90                   	nop
    4fdd:	90                   	nop
    4fde:	90                   	nop
    4fdf:	90                   	nop
    4fe0:	90                   	nop
    4fe1:	90                   	nop
    4fe2:	90                   	nop
    4fe3:	90                   	nop
    4fe4:	90                   	nop
    4fe5:	90                   	nop
    4fe6:	90                   	nop
    4fe7:	90                   	nop
    4fe8:	90                   	nop
    4fe9:	90                   	nop
    4fea:	90                   	nop
    4feb:	90                   	nop
    4fec:	90                   	nop
    4fed:	90                   	nop
    4fee:	90                   	nop
    4fef:	90                   	nop
    4ff0:	90                   	nop
    4ff1:	90                   	nop
    4ff2:	90                   	nop
    4ff3:	90                   	nop
    4ff4:	90                   	nop
    4ff5:	90                   	nop
    4ff6:	90                   	nop
    4ff7:	90                   	nop
    4ff8:	90                   	nop
    4ff9:	90                   	nop
    4ffa:	90                   	nop
    4ffb:	90                   	nop
    4ffc:	90                   	nop
    4ffd:	90                   	nop
    4ffe:	90                   	nop
    4fff:	90                   	nop

00005000 <BootPageDirectory>:
	...

00006000 <BootPageTable>:
	...

00007000 <BootPageTable2>:
	...

00008000 <BootPageTable3>:
	...

00009000 <BootPageTable4>:
	...

0000a000 <BootPageTable5>:
	...

0000b000 <BootPageTable6>:
	...

0000c000 <BootPageTable7>:
	...

0000d000 <_stack_address>:
    d000:	00 00                	add    %al,(%eax)
	...

0000d004 <_multiboot_info>:
    d004:	00 00                	add    %al,(%eax)
	...

0000d008 <_multiboot_info.addr>:
    d008:	00 00                	add    %al,(%eax)
	...

Disassembly of section .text:

c0100000 <LIST_INIT>:
c0100000:	55                   	push   %ebp
c0100001:	89 e5                	mov    %esp,%ebp
c0100003:	8b 45 08             	mov    0x8(%ebp),%eax
c0100006:	8b 55 08             	mov    0x8(%ebp),%edx
c0100009:	89 10                	mov    %edx,(%eax)
c010000b:	8b 45 08             	mov    0x8(%ebp),%eax
c010000e:	8b 55 08             	mov    0x8(%ebp),%edx
c0100011:	89 50 04             	mov    %edx,0x4(%eax)
c0100014:	90                   	nop
c0100015:	5d                   	pop    %ebp
c0100016:	c3                   	ret    

c0100017 <list_add_head>:
c0100017:	55                   	push   %ebp
c0100018:	89 e5                	mov    %esp,%ebp
c010001a:	83 ec 10             	sub    $0x10,%esp
c010001d:	8b 45 08             	mov    0x8(%ebp),%eax
c0100020:	8b 00                	mov    (%eax),%eax
c0100022:	89 45 fc             	mov    %eax,-0x4(%ebp)
c0100025:	8b 45 fc             	mov    -0x4(%ebp),%eax
c0100028:	8b 55 0c             	mov    0xc(%ebp),%edx
c010002b:	89 50 04             	mov    %edx,0x4(%eax)
c010002e:	8b 45 0c             	mov    0xc(%ebp),%eax
c0100031:	8b 55 fc             	mov    -0x4(%ebp),%edx
c0100034:	89 10                	mov    %edx,(%eax)
c0100036:	8b 45 0c             	mov    0xc(%ebp),%eax
c0100039:	8b 55 08             	mov    0x8(%ebp),%edx
c010003c:	89 50 04             	mov    %edx,0x4(%eax)
c010003f:	8b 45 08             	mov    0x8(%ebp),%eax
c0100042:	8b 55 0c             	mov    0xc(%ebp),%edx
c0100045:	89 10                	mov    %edx,(%eax)
c0100047:	90                   	nop
c0100048:	c9                   	leave  
c0100049:	c3                   	ret    

c010004a <set_pos_block>:
c010004a:	55                   	push   %ebp
c010004b:	89 e5                	mov    %esp,%ebp
c010004d:	83 ec 08             	sub    $0x8,%esp
c0100050:	8b 45 08             	mov    0x8(%ebp),%eax
c0100053:	8b 40 0c             	mov    0xc(%eax),%eax
c0100056:	83 ec 0c             	sub    $0xc,%esp
c0100059:	50                   	push   %eax
c010005a:	e8 a3 66 00 00       	call   c0106702 <get_lock>
c010005f:	83 c4 10             	add    $0x10,%esp
c0100062:	8b 45 08             	mov    0x8(%ebp),%eax
c0100065:	8b 40 18             	mov    0x18(%eax),%eax
c0100068:	39 45 0c             	cmp    %eax,0xc(%ebp)
c010006b:	72 19                	jb     c0100086 <set_pos_block+0x3c>
c010006d:	8b 45 08             	mov    0x8(%ebp),%eax
c0100070:	8b 40 0c             	mov    0xc(%eax),%eax
c0100073:	83 ec 0c             	sub    $0xc,%esp
c0100076:	50                   	push   %eax
c0100077:	e8 05 67 00 00       	call   c0106781 <unlock>
c010007c:	83 c4 10             	add    $0x10,%esp
c010007f:	b8 ff ff ff ff       	mov    $0xffffffff,%eax
c0100084:	eb 20                	jmp    c01000a6 <set_pos_block+0x5c>
c0100086:	8b 45 08             	mov    0x8(%ebp),%eax
c0100089:	8b 55 0c             	mov    0xc(%ebp),%edx
c010008c:	89 50 1c             	mov    %edx,0x1c(%eax)
c010008f:	8b 45 08             	mov    0x8(%ebp),%eax
c0100092:	8b 40 0c             	mov    0xc(%eax),%eax
c0100095:	83 ec 0c             	sub    $0xc,%esp
c0100098:	50                   	push   %eax
c0100099:	e8 e3 66 00 00       	call   c0106781 <unlock>
c010009e:	83 c4 10             	add    $0x10,%esp
c01000a1:	b8 01 00 00 00       	mov    $0x1,%eax
c01000a6:	c9                   	leave  
c01000a7:	c3                   	ret    

c01000a8 <write_byte_block>:
c01000a8:	55                   	push   %ebp
c01000a9:	89 e5                	mov    %esp,%ebp
c01000ab:	83 ec 18             	sub    $0x18,%esp
c01000ae:	8b 45 0c             	mov    0xc(%ebp),%eax
c01000b1:	88 45 f4             	mov    %al,-0xc(%ebp)
c01000b4:	8b 45 08             	mov    0x8(%ebp),%eax
c01000b7:	8b 40 0c             	mov    0xc(%eax),%eax
c01000ba:	83 ec 0c             	sub    $0xc,%esp
c01000bd:	50                   	push   %eax
c01000be:	e8 3f 66 00 00       	call   c0106702 <get_lock>
c01000c3:	83 c4 10             	add    $0x10,%esp
c01000c6:	8b 45 08             	mov    0x8(%ebp),%eax
c01000c9:	8b 50 14             	mov    0x14(%eax),%edx
c01000cc:	8b 45 08             	mov    0x8(%ebp),%eax
c01000cf:	8b 40 1c             	mov    0x1c(%eax),%eax
c01000d2:	01 c2                	add    %eax,%edx
c01000d4:	0f b6 45 f4          	movzbl -0xc(%ebp),%eax
c01000d8:	88 02                	mov    %al,(%edx)
c01000da:	8b 45 08             	mov    0x8(%ebp),%eax
c01000dd:	8b 40 0c             	mov    0xc(%eax),%eax
c01000e0:	83 ec 0c             	sub    $0xc,%esp
c01000e3:	50                   	push   %eax
c01000e4:	e8 98 66 00 00       	call   c0106781 <unlock>
c01000e9:	83 c4 10             	add    $0x10,%esp
c01000ec:	b8 01 00 00 00       	mov    $0x1,%eax
c01000f1:	c9                   	leave  
c01000f2:	c3                   	ret    

c01000f3 <read_byte_block>:
c01000f3:	55                   	push   %ebp
c01000f4:	89 e5                	mov    %esp,%ebp
c01000f6:	83 ec 18             	sub    $0x18,%esp
c01000f9:	8b 45 08             	mov    0x8(%ebp),%eax
c01000fc:	8b 40 0c             	mov    0xc(%eax),%eax
c01000ff:	83 ec 0c             	sub    $0xc,%esp
c0100102:	50                   	push   %eax
c0100103:	e8 fa 65 00 00       	call   c0106702 <get_lock>
c0100108:	83 c4 10             	add    $0x10,%esp
c010010b:	8b 45 08             	mov    0x8(%ebp),%eax
c010010e:	8b 40 10             	mov    0x10(%eax),%eax
c0100111:	83 ec 0c             	sub    $0xc,%esp
c0100114:	50                   	push   %eax
c0100115:	e8 e8 65 00 00       	call   c0106702 <get_lock>
c010011a:	83 c4 10             	add    $0x10,%esp
c010011d:	8b 45 08             	mov    0x8(%ebp),%eax
c0100120:	8b 50 14             	mov    0x14(%eax),%edx
c0100123:	8b 45 08             	mov    0x8(%ebp),%eax
c0100126:	8b 40 1c             	mov    0x1c(%eax),%eax
c0100129:	01 d0                	add    %edx,%eax
c010012b:	0f b6 00             	movzbl (%eax),%eax
c010012e:	88 45 f7             	mov    %al,-0x9(%ebp)
c0100131:	8b 45 08             	mov    0x8(%ebp),%eax
c0100134:	8b 40 10             	mov    0x10(%eax),%eax
c0100137:	83 ec 0c             	sub    $0xc,%esp
c010013a:	50                   	push   %eax
c010013b:	e8 41 66 00 00       	call   c0106781 <unlock>
c0100140:	83 c4 10             	add    $0x10,%esp
c0100143:	8b 45 08             	mov    0x8(%ebp),%eax
c0100146:	8b 40 0c             	mov    0xc(%eax),%eax
c0100149:	83 ec 0c             	sub    $0xc,%esp
c010014c:	50                   	push   %eax
c010014d:	e8 2f 66 00 00       	call   c0106781 <unlock>
c0100152:	83 c4 10             	add    $0x10,%esp
c0100155:	0f b6 45 f7          	movzbl -0x9(%ebp),%eax
c0100159:	c9                   	leave  
c010015a:	c3                   	ret    

c010015b <init_files>:
c010015b:	55                   	push   %ebp
c010015c:	89 e5                	mov    %esp,%ebp
c010015e:	83 ec 08             	sub    $0x8,%esp
c0100161:	68 04 b0 10 c0       	push   $0xc010b004
c0100166:	e8 95 fe ff ff       	call   c0100000 <LIST_INIT>
c010016b:	83 c4 04             	add    $0x4,%esp
c010016e:	83 ec 08             	sub    $0x8,%esp
c0100171:	6a 05                	push   $0x5
c0100173:	68 20 00 00 00       	push   $0x20
c0100178:	e8 5c 00 00 00       	call   c01001d9 <create_char_device>
c010017d:	83 c4 10             	add    $0x10,%esp
c0100180:	a3 0c b0 10 c0       	mov    %eax,0xc010b00c
c0100185:	83 ec 08             	sub    $0x8,%esp
c0100188:	6a 02                	push   $0x2
c010018a:	68 26 00 00 00       	push   $0x26
c010018f:	e8 22 00 00 00       	call   c01001b6 <create_block_device>
c0100194:	83 c4 10             	add    $0x10,%esp
c0100197:	a3 10 b0 10 c0       	mov    %eax,0xc010b010
c010019c:	83 ec 08             	sub    $0x8,%esp
c010019f:	6a 02                	push   $0x2
c01001a1:	68 2d 00 00 00       	push   $0x2d
c01001a6:	e8 0b 00 00 00       	call   c01001b6 <create_block_device>
c01001ab:	83 c4 10             	add    $0x10,%esp
c01001ae:	a3 14 b0 10 c0       	mov    %eax,0xc010b014
c01001b3:	90                   	nop
c01001b4:	c9                   	leave  
c01001b5:	c3                   	ret    

c01001b6 <create_block_device>:
c01001b6:	55                   	push   %ebp
c01001b7:	89 e5                	mov    %esp,%ebp
c01001b9:	83 ec 18             	sub    $0x18,%esp
c01001bc:	8b 45 0c             	mov    0xc(%ebp),%eax
c01001bf:	88 45 f4             	mov    %al,-0xc(%ebp)
c01001c2:	0f b6 45 f4          	movzbl -0xc(%ebp),%eax
c01001c6:	83 ec 04             	sub    $0x4,%esp
c01001c9:	6a 01                	push   $0x1
c01001cb:	50                   	push   %eax
c01001cc:	ff 75 08             	push   0x8(%ebp)
c01001cf:	e8 06 02 00 00       	call   c01003da <create_device>
c01001d4:	83 c4 10             	add    $0x10,%esp
c01001d7:	c9                   	leave  
c01001d8:	c3                   	ret    

c01001d9 <create_char_device>:
c01001d9:	55                   	push   %ebp
c01001da:	89 e5                	mov    %esp,%ebp
c01001dc:	83 ec 18             	sub    $0x18,%esp
c01001df:	8b 45 0c             	mov    0xc(%ebp),%eax
c01001e2:	88 45 f4             	mov    %al,-0xc(%ebp)
c01001e5:	0f b6 45 f4          	movzbl -0xc(%ebp),%eax
c01001e9:	83 ec 04             	sub    $0x4,%esp
c01001ec:	6a 00                	push   $0x0
c01001ee:	50                   	push   %eax
c01001ef:	ff 75 08             	push   0x8(%ebp)
c01001f2:	e8 e3 01 00 00       	call   c01003da <create_device>
c01001f7:	83 c4 10             	add    $0x10,%esp
c01001fa:	c9                   	leave  
c01001fb:	c3                   	ret    

c01001fc <write_byte_stream>:
c01001fc:	55                   	push   %ebp
c01001fd:	89 e5                	mov    %esp,%ebp
c01001ff:	83 ec 18             	sub    $0x18,%esp
c0100202:	8b 45 0c             	mov    0xc(%ebp),%eax
c0100205:	88 45 f4             	mov    %al,-0xc(%ebp)
c0100208:	8b 45 08             	mov    0x8(%ebp),%eax
c010020b:	8b 40 0c             	mov    0xc(%eax),%eax
c010020e:	83 ec 0c             	sub    $0xc,%esp
c0100211:	50                   	push   %eax
c0100212:	e8 eb 64 00 00       	call   c0106702 <get_lock>
c0100217:	83 c4 10             	add    $0x10,%esp
c010021a:	0f b6 45 f4          	movzbl -0xc(%ebp),%eax
c010021e:	0f be d0             	movsbl %al,%edx
c0100221:	8b 45 08             	mov    0x8(%ebp),%eax
c0100224:	8b 40 14             	mov    0x14(%eax),%eax
c0100227:	83 ec 08             	sub    $0x8,%esp
c010022a:	52                   	push   %edx
c010022b:	50                   	push   %eax
c010022c:	e8 ff 25 00 00       	call   c0102830 <append>
c0100231:	83 c4 10             	add    $0x10,%esp
c0100234:	8b 45 08             	mov    0x8(%ebp),%eax
c0100237:	8b 40 24             	mov    0x24(%eax),%eax
c010023a:	8d 50 01             	lea    0x1(%eax),%edx
c010023d:	8b 45 08             	mov    0x8(%ebp),%eax
c0100240:	89 50 24             	mov    %edx,0x24(%eax)
c0100243:	8b 45 08             	mov    0x8(%ebp),%eax
c0100246:	8b 40 10             	mov    0x10(%eax),%eax
c0100249:	83 ec 0c             	sub    $0xc,%esp
c010024c:	50                   	push   %eax
c010024d:	e8 2f 65 00 00       	call   c0106781 <unlock>
c0100252:	83 c4 10             	add    $0x10,%esp
c0100255:	8b 45 08             	mov    0x8(%ebp),%eax
c0100258:	8b 40 0c             	mov    0xc(%eax),%eax
c010025b:	83 ec 0c             	sub    $0xc,%esp
c010025e:	50                   	push   %eax
c010025f:	e8 1d 65 00 00       	call   c0106781 <unlock>
c0100264:	83 c4 10             	add    $0x10,%esp
c0100267:	b8 01 00 00 00       	mov    $0x1,%eax
c010026c:	c9                   	leave  
c010026d:	c3                   	ret    

c010026e <read_byte_stream>:
c010026e:	55                   	push   %ebp
c010026f:	89 e5                	mov    %esp,%ebp
c0100271:	53                   	push   %ebx
c0100272:	83 ec 14             	sub    $0x14,%esp
c0100275:	8b 45 08             	mov    0x8(%ebp),%eax
c0100278:	8b 40 10             	mov    0x10(%eax),%eax
c010027b:	83 ec 0c             	sub    $0xc,%esp
c010027e:	50                   	push   %eax
c010027f:	e8 7e 64 00 00       	call   c0106702 <get_lock>
c0100284:	83 c4 10             	add    $0x10,%esp
c0100287:	8b 45 08             	mov    0x8(%ebp),%eax
c010028a:	8b 40 0c             	mov    0xc(%eax),%eax
c010028d:	83 ec 0c             	sub    $0xc,%esp
c0100290:	50                   	push   %eax
c0100291:	e8 55 64 00 00       	call   c01066eb <test_lock>
c0100296:	83 c4 10             	add    $0x10,%esp
c0100299:	83 f8 01             	cmp    $0x1,%eax
c010029c:	75 13                	jne    c01002b1 <read_byte_stream+0x43>
c010029e:	8b 45 08             	mov    0x8(%ebp),%eax
c01002a1:	8b 40 10             	mov    0x10(%eax),%eax
c01002a4:	c7 00 00 00 00 00    	movl   $0x0,(%eax)
c01002aa:	e8 87 09 00 00       	call   c0100c36 <reschedule>
c01002af:	eb c4                	jmp    c0100275 <read_byte_stream+0x7>
c01002b1:	8b 45 08             	mov    0x8(%ebp),%eax
c01002b4:	8b 58 14             	mov    0x14(%eax),%ebx
c01002b7:	8b 45 08             	mov    0x8(%ebp),%eax
c01002ba:	8b 40 20             	mov    0x20(%eax),%eax
c01002bd:	8d 48 01             	lea    0x1(%eax),%ecx
c01002c0:	8b 55 08             	mov    0x8(%ebp),%edx
c01002c3:	89 4a 20             	mov    %ecx,0x20(%edx)
c01002c6:	01 d8                	add    %ebx,%eax
c01002c8:	0f b6 00             	movzbl (%eax),%eax
c01002cb:	88 45 f7             	mov    %al,-0x9(%ebp)
c01002ce:	8b 45 08             	mov    0x8(%ebp),%eax
c01002d1:	8b 40 24             	mov    0x24(%eax),%eax
c01002d4:	8d 50 ff             	lea    -0x1(%eax),%edx
c01002d7:	8b 45 08             	mov    0x8(%ebp),%eax
c01002da:	89 50 24             	mov    %edx,0x24(%eax)
c01002dd:	8b 45 08             	mov    0x8(%ebp),%eax
c01002e0:	8b 40 24             	mov    0x24(%eax),%eax
c01002e3:	85 c0                	test   %eax,%eax
c01002e5:	75 25                	jne    c010030c <read_byte_stream+0x9e>
c01002e7:	8b 45 08             	mov    0x8(%ebp),%eax
c01002ea:	8b 40 14             	mov    0x14(%eax),%eax
c01002ed:	83 ec 04             	sub    $0x4,%esp
c01002f0:	68 00 20 00 00       	push   $0x2000
c01002f5:	6a 00                	push   $0x0
c01002f7:	50                   	push   %eax
c01002f8:	e8 c8 4c 00 00       	call   c0104fc5 <memset>
c01002fd:	83 c4 10             	add    $0x10,%esp
c0100300:	8b 45 08             	mov    0x8(%ebp),%eax
c0100303:	c7 40 20 00 00 00 00 	movl   $0x0,0x20(%eax)
c010030a:	eb 12                	jmp    c010031e <read_byte_stream+0xb0>
c010030c:	8b 45 08             	mov    0x8(%ebp),%eax
c010030f:	8b 40 10             	mov    0x10(%eax),%eax
c0100312:	83 ec 0c             	sub    $0xc,%esp
c0100315:	50                   	push   %eax
c0100316:	e8 66 64 00 00       	call   c0106781 <unlock>
c010031b:	83 c4 10             	add    $0x10,%esp
c010031e:	8b 45 08             	mov    0x8(%ebp),%eax
c0100321:	8b 40 0c             	mov    0xc(%eax),%eax
c0100324:	83 ec 0c             	sub    $0xc,%esp
c0100327:	50                   	push   %eax
c0100328:	e8 54 64 00 00       	call   c0106781 <unlock>
c010032d:	83 c4 10             	add    $0x10,%esp
c0100330:	0f b6 45 f7          	movzbl -0x9(%ebp),%eax
c0100334:	8b 5d fc             	mov    -0x4(%ebp),%ebx
c0100337:	c9                   	leave  
c0100338:	c3                   	ret    

c0100339 <copy_fd>:
c0100339:	55                   	push   %ebp
c010033a:	89 e5                	mov    %esp,%ebp
c010033c:	8b 45 08             	mov    0x8(%ebp),%eax
c010033f:	8b 50 08             	mov    0x8(%eax),%edx
c0100342:	8b 45 0c             	mov    0xc(%ebp),%eax
c0100345:	89 50 08             	mov    %edx,0x8(%eax)
c0100348:	8b 45 08             	mov    0x8(%ebp),%eax
c010034b:	8b 50 14             	mov    0x14(%eax),%edx
c010034e:	8b 45 0c             	mov    0xc(%ebp),%eax
c0100351:	89 50 14             	mov    %edx,0x14(%eax)
c0100354:	8b 45 08             	mov    0x8(%ebp),%eax
c0100357:	8b 50 04             	mov    0x4(%eax),%edx
c010035a:	8b 45 0c             	mov    0xc(%ebp),%eax
c010035d:	89 50 04             	mov    %edx,0x4(%eax)
c0100360:	8b 45 08             	mov    0x8(%ebp),%eax
c0100363:	8b 50 20             	mov    0x20(%eax),%edx
c0100366:	8b 45 0c             	mov    0xc(%ebp),%eax
c0100369:	89 50 20             	mov    %edx,0x20(%eax)
c010036c:	8b 45 08             	mov    0x8(%ebp),%eax
c010036f:	8b 50 0c             	mov    0xc(%eax),%edx
c0100372:	8b 45 0c             	mov    0xc(%ebp),%eax
c0100375:	89 50 0c             	mov    %edx,0xc(%eax)
c0100378:	8b 45 08             	mov    0x8(%ebp),%eax
c010037b:	8b 50 1c             	mov    0x1c(%eax),%edx
c010037e:	8b 45 0c             	mov    0xc(%ebp),%eax
c0100381:	89 50 1c             	mov    %edx,0x1c(%eax)
c0100384:	8b 45 08             	mov    0x8(%ebp),%eax
c0100387:	8b 50 3c             	mov    0x3c(%eax),%edx
c010038a:	8b 45 0c             	mov    0xc(%ebp),%eax
c010038d:	89 50 3c             	mov    %edx,0x3c(%eax)
c0100390:	8b 45 08             	mov    0x8(%ebp),%eax
c0100393:	8b 50 10             	mov    0x10(%eax),%edx
c0100396:	8b 45 0c             	mov    0xc(%ebp),%eax
c0100399:	89 50 10             	mov    %edx,0x10(%eax)
c010039c:	8b 45 08             	mov    0x8(%ebp),%eax
c010039f:	8b 50 40             	mov    0x40(%eax),%edx
c01003a2:	8b 45 0c             	mov    0xc(%ebp),%eax
c01003a5:	89 50 40             	mov    %edx,0x40(%eax)
c01003a8:	8b 45 08             	mov    0x8(%ebp),%eax
c01003ab:	8b 50 18             	mov    0x18(%eax),%edx
c01003ae:	8b 45 0c             	mov    0xc(%ebp),%eax
c01003b1:	89 50 18             	mov    %edx,0x18(%eax)
c01003b4:	8b 45 08             	mov    0x8(%ebp),%eax
c01003b7:	0f b6 10             	movzbl (%eax),%edx
c01003ba:	8b 45 0c             	mov    0xc(%ebp),%eax
c01003bd:	88 10                	mov    %dl,(%eax)
c01003bf:	8b 45 08             	mov    0x8(%ebp),%eax
c01003c2:	8b 50 24             	mov    0x24(%eax),%edx
c01003c5:	8b 45 0c             	mov    0xc(%ebp),%eax
c01003c8:	89 50 24             	mov    %edx,0x24(%eax)
c01003cb:	8b 45 08             	mov    0x8(%ebp),%eax
c01003ce:	8b 50 38             	mov    0x38(%eax),%edx
c01003d1:	8b 45 0c             	mov    0xc(%ebp),%eax
c01003d4:	89 50 38             	mov    %edx,0x38(%eax)
c01003d7:	90                   	nop
c01003d8:	5d                   	pop    %ebp
c01003d9:	c3                   	ret    

c01003da <create_device>:
c01003da:	55                   	push   %ebp
c01003db:	89 e5                	mov    %esp,%ebp
c01003dd:	83 ec 28             	sub    $0x28,%esp
c01003e0:	8b 55 0c             	mov    0xc(%ebp),%edx
c01003e3:	8b 45 10             	mov    0x10(%ebp),%eax
c01003e6:	88 55 e4             	mov    %dl,-0x1c(%ebp)
c01003e9:	88 45 e0             	mov    %al,-0x20(%ebp)
c01003ec:	83 ec 0c             	sub    $0xc,%esp
c01003ef:	6a 00                	push   $0x0
c01003f1:	e8 de 47 00 00       	call   c0104bd4 <normal_page_alloc>
c01003f6:	83 c4 10             	add    $0x10,%esp
c01003f9:	89 45 f4             	mov    %eax,-0xc(%ebp)
c01003fc:	83 ec 0c             	sub    $0xc,%esp
c01003ff:	6a 00                	push   $0x0
c0100401:	e8 ce 47 00 00       	call   c0104bd4 <normal_page_alloc>
c0100406:	83 c4 10             	add    $0x10,%esp
c0100409:	89 45 f0             	mov    %eax,-0x10(%ebp)
c010040c:	83 ec 0c             	sub    $0xc,%esp
c010040f:	ff 75 08             	push   0x8(%ebp)
c0100412:	e8 f7 21 00 00       	call   c010260e <strlen>
c0100417:	83 c4 10             	add    $0x10,%esp
c010041a:	89 45 ec             	mov    %eax,-0x14(%ebp)
c010041d:	83 ec 04             	sub    $0x4,%esp
c0100420:	ff 75 ec             	push   -0x14(%ebp)
c0100423:	ff 75 f0             	push   -0x10(%ebp)
c0100426:	ff 75 08             	push   0x8(%ebp)
c0100429:	e8 63 4b 00 00       	call   c0104f91 <memcopy>
c010042e:	83 c4 10             	add    $0x10,%esp
c0100431:	8b 55 f0             	mov    -0x10(%ebp),%edx
c0100434:	8b 45 ec             	mov    -0x14(%ebp),%eax
c0100437:	01 d0                	add    %edx,%eax
c0100439:	c6 00 00             	movb   $0x0,(%eax)
c010043c:	8b 45 f4             	mov    -0xc(%ebp),%eax
c010043f:	8b 55 f0             	mov    -0x10(%ebp),%edx
c0100442:	89 50 08             	mov    %edx,0x8(%eax)
c0100445:	a1 00 b0 10 c0       	mov    0xc010b000,%eax
c010044a:	8d 50 01             	lea    0x1(%eax),%edx
c010044d:	89 15 00 b0 10 c0    	mov    %edx,0xc010b000
c0100453:	8b 55 f4             	mov    -0xc(%ebp),%edx
c0100456:	89 42 04             	mov    %eax,0x4(%edx)
c0100459:	0f b6 45 e4          	movzbl -0x1c(%ebp),%eax
c010045d:	83 ec 0c             	sub    $0xc,%esp
c0100460:	50                   	push   %eax
c0100461:	e8 6e 47 00 00       	call   c0104bd4 <normal_page_alloc>
c0100466:	83 c4 10             	add    $0x10,%esp
c0100469:	8b 55 f4             	mov    -0xc(%ebp),%edx
c010046c:	89 42 14             	mov    %eax,0x14(%edx)
c010046f:	0f b6 45 e4          	movzbl -0x1c(%ebp),%eax
c0100473:	ba 00 10 00 00       	mov    $0x1000,%edx
c0100478:	89 c1                	mov    %eax,%ecx
c010047a:	d3 e2                	shl    %cl,%edx
c010047c:	89 d0                	mov    %edx,%eax
c010047e:	89 c2                	mov    %eax,%edx
c0100480:	8b 45 f4             	mov    -0xc(%ebp),%eax
c0100483:	8b 40 14             	mov    0x14(%eax),%eax
c0100486:	83 ec 04             	sub    $0x4,%esp
c0100489:	52                   	push   %edx
c010048a:	6a 00                	push   $0x0
c010048c:	50                   	push   %eax
c010048d:	e8 33 4b 00 00       	call   c0104fc5 <memset>
c0100492:	83 c4 10             	add    $0x10,%esp
c0100495:	80 7d e0 00          	cmpb   $0x0,-0x20(%ebp)
c0100499:	75 0c                	jne    c01004a7 <create_device+0xcd>
c010049b:	8b 45 f4             	mov    -0xc(%ebp),%eax
c010049e:	c7 40 24 00 00 00 00 	movl   $0x0,0x24(%eax)
c01004a5:	eb 17                	jmp    c01004be <create_device+0xe4>
c01004a7:	0f b6 45 e4          	movzbl -0x1c(%ebp),%eax
c01004ab:	ba 00 10 00 00       	mov    $0x1000,%edx
c01004b0:	89 c1                	mov    %eax,%ecx
c01004b2:	d3 e2                	shl    %cl,%edx
c01004b4:	89 d0                	mov    %edx,%eax
c01004b6:	89 c2                	mov    %eax,%edx
c01004b8:	8b 45 f4             	mov    -0xc(%ebp),%eax
c01004bb:	89 50 24             	mov    %edx,0x24(%eax)
c01004be:	8b 45 f4             	mov    -0xc(%ebp),%eax
c01004c1:	c7 40 20 00 00 00 00 	movl   $0x0,0x20(%eax)
c01004c8:	e8 ac 61 00 00       	call   c0106679 <make_lock>
c01004cd:	8b 55 f4             	mov    -0xc(%ebp),%edx
c01004d0:	89 42 0c             	mov    %eax,0xc(%edx)
c01004d3:	e8 a1 61 00 00       	call   c0106679 <make_lock>
c01004d8:	8b 55 f4             	mov    -0xc(%ebp),%edx
c01004db:	89 42 10             	mov    %eax,0x10(%edx)
c01004de:	8b 45 f4             	mov    -0xc(%ebp),%eax
c01004e1:	8b 40 10             	mov    0x10(%eax),%eax
c01004e4:	c7 00 01 00 00 00    	movl   $0x1,(%eax)
c01004ea:	8b 45 f4             	mov    -0xc(%ebp),%eax
c01004ed:	8b 40 0c             	mov    0xc(%eax),%eax
c01004f0:	c7 00 00 00 00 00    	movl   $0x0,(%eax)
c01004f6:	8b 45 f4             	mov    -0xc(%ebp),%eax
c01004f9:	0f b6 55 e0          	movzbl -0x20(%ebp),%edx
c01004fd:	88 10                	mov    %dl,(%eax)
c01004ff:	0f b6 45 e4          	movzbl -0x1c(%ebp),%eax
c0100503:	ba 00 10 00 00       	mov    $0x1000,%edx
c0100508:	89 c1                	mov    %eax,%ecx
c010050a:	d3 e2                	shl    %cl,%edx
c010050c:	89 d0                	mov    %edx,%eax
c010050e:	89 c2                	mov    %eax,%edx
c0100510:	8b 45 f4             	mov    -0xc(%ebp),%eax
c0100513:	89 50 18             	mov    %edx,0x18(%eax)
c0100516:	8b 45 f4             	mov    -0xc(%ebp),%eax
c0100519:	c7 40 38 00 00 00 00 	movl   $0x0,0x38(%eax)
c0100520:	8b 45 f4             	mov    -0xc(%ebp),%eax
c0100523:	c7 40 3c 00 00 00 00 	movl   $0x0,0x3c(%eax)
c010052a:	8b 45 f4             	mov    -0xc(%ebp),%eax
c010052d:	c7 40 40 00 00 00 00 	movl   $0x0,0x40(%eax)
c0100534:	8b 45 f4             	mov    -0xc(%ebp),%eax
c0100537:	83 c0 30             	add    $0x30,%eax
c010053a:	83 ec 0c             	sub    $0xc,%esp
c010053d:	50                   	push   %eax
c010053e:	e8 bd fa ff ff       	call   c0100000 <LIST_INIT>
c0100543:	83 c4 10             	add    $0x10,%esp
c0100546:	8b 45 f4             	mov    -0xc(%ebp),%eax
c0100549:	83 c0 28             	add    $0x28,%eax
c010054c:	83 ec 0c             	sub    $0xc,%esp
c010054f:	50                   	push   %eax
c0100550:	e8 ab fa ff ff       	call   c0100000 <LIST_INIT>
c0100555:	83 c4 10             	add    $0x10,%esp
c0100558:	8b 45 f4             	mov    -0xc(%ebp),%eax
c010055b:	83 c0 30             	add    $0x30,%eax
c010055e:	83 ec 08             	sub    $0x8,%esp
c0100561:	50                   	push   %eax
c0100562:	68 04 b0 10 c0       	push   $0xc010b004
c0100567:	e8 ab fa ff ff       	call   c0100017 <list_add_head>
c010056c:	83 c4 10             	add    $0x10,%esp
c010056f:	8b 45 f4             	mov    -0xc(%ebp),%eax
c0100572:	c9                   	leave  
c0100573:	c3                   	ret    
c0100574:	66 90                	xchg   %ax,%ax
c0100576:	66 90                	xchg   %ax,%ax
c0100578:	66 90                	xchg   %ax,%ax
c010057a:	66 90                	xchg   %ax,%ax
c010057c:	66 90                	xchg   %ax,%ax
c010057e:	66 90                	xchg   %ax,%ax

c0100580 <isr_common_stub>:
c0100580:	60                   	pusha  
c0100581:	66 8c d8             	mov    %ds,%ax
c0100584:	50                   	push   %eax
c0100585:	66 b8 10 00          	mov    $0x10,%ax
c0100589:	8e d8                	mov    %eax,%ds
c010058b:	8e c0                	mov    %eax,%es
c010058d:	8e e0                	mov    %eax,%fs
c010058f:	8e e8                	mov    %eax,%gs
c0100591:	54                   	push   %esp
c0100592:	fc                   	cld    
c0100593:	e8 ce 35 00 00       	call   c0103b66 <isr_handler>
c0100598:	58                   	pop    %eax
c0100599:	58                   	pop    %eax
c010059a:	8e d8                	mov    %eax,%ds
c010059c:	8e c0                	mov    %eax,%es
c010059e:	8e e0                	mov    %eax,%fs
c01005a0:	8e e8                	mov    %eax,%gs
c01005a2:	61                   	popa   
c01005a3:	83 c4 08             	add    $0x8,%esp
c01005a6:	81 4c 24 08 00 02 00 	orl    $0x200,0x8(%esp)
c01005ad:	00 
c01005ae:	cf                   	iret   

c01005af <irq_common_stub>:
c01005af:	60                   	pusha  
c01005b0:	66 8c d8             	mov    %ds,%ax
c01005b3:	50                   	push   %eax
c01005b4:	66 b8 10 00          	mov    $0x10,%ax
c01005b8:	8e d8                	mov    %eax,%ds
c01005ba:	8e c0                	mov    %eax,%es
c01005bc:	8e e0                	mov    %eax,%fs
c01005be:	8e e8                	mov    %eax,%gs
c01005c0:	54                   	push   %esp
c01005c1:	fc                   	cld    
c01005c2:	e8 c4 36 00 00       	call   c0103c8b <irq_handler>
c01005c7:	5b                   	pop    %ebx
c01005c8:	5b                   	pop    %ebx
c01005c9:	8e db                	mov    %ebx,%ds
c01005cb:	8e c3                	mov    %ebx,%es
c01005cd:	8e e3                	mov    %ebx,%fs
c01005cf:	8e eb                	mov    %ebx,%gs
c01005d1:	61                   	popa   
c01005d2:	83 c4 08             	add    $0x8,%esp
c01005d5:	81 4c 24 08 00 02 00 	orl    $0x200,0x8(%esp)
c01005dc:	00 
c01005dd:	cf                   	iret   

c01005de <isr0>:
c01005de:	fa                   	cli    
c01005df:	6a 00                	push   $0x0
c01005e1:	6a 00                	push   $0x0
c01005e3:	eb 9b                	jmp    c0100580 <isr_common_stub>

c01005e5 <isr1>:
c01005e5:	fa                   	cli    
c01005e6:	6a 00                	push   $0x0
c01005e8:	6a 01                	push   $0x1
c01005ea:	eb 94                	jmp    c0100580 <isr_common_stub>

c01005ec <isr2>:
c01005ec:	fa                   	cli    
c01005ed:	6a 00                	push   $0x0
c01005ef:	6a 02                	push   $0x2
c01005f1:	eb 8d                	jmp    c0100580 <isr_common_stub>

c01005f3 <isr3>:
c01005f3:	fa                   	cli    
c01005f4:	6a 00                	push   $0x0
c01005f6:	6a 03                	push   $0x3
c01005f8:	eb 86                	jmp    c0100580 <isr_common_stub>

c01005fa <isr4>:
c01005fa:	fa                   	cli    
c01005fb:	6a 00                	push   $0x0
c01005fd:	6a 04                	push   $0x4
c01005ff:	e9 7c ff ff ff       	jmp    c0100580 <isr_common_stub>

c0100604 <isr5>:
c0100604:	fa                   	cli    
c0100605:	6a 00                	push   $0x0
c0100607:	6a 05                	push   $0x5
c0100609:	e9 72 ff ff ff       	jmp    c0100580 <isr_common_stub>

c010060e <isr6>:
c010060e:	fa                   	cli    
c010060f:	6a 00                	push   $0x0
c0100611:	6a 06                	push   $0x6
c0100613:	e9 68 ff ff ff       	jmp    c0100580 <isr_common_stub>

c0100618 <isr7>:
c0100618:	fa                   	cli    
c0100619:	6a 00                	push   $0x0
c010061b:	6a 07                	push   $0x7
c010061d:	e9 5e ff ff ff       	jmp    c0100580 <isr_common_stub>

c0100622 <isr8>:
c0100622:	fa                   	cli    
c0100623:	6a 08                	push   $0x8
c0100625:	e9 56 ff ff ff       	jmp    c0100580 <isr_common_stub>

c010062a <isr9>:
c010062a:	fa                   	cli    
c010062b:	6a 00                	push   $0x0
c010062d:	6a 09                	push   $0x9
c010062f:	e9 4c ff ff ff       	jmp    c0100580 <isr_common_stub>

c0100634 <isr10>:
c0100634:	fa                   	cli    
c0100635:	6a 0a                	push   $0xa
c0100637:	e9 44 ff ff ff       	jmp    c0100580 <isr_common_stub>

c010063c <isr11>:
c010063c:	fa                   	cli    
c010063d:	6a 0b                	push   $0xb
c010063f:	e9 3c ff ff ff       	jmp    c0100580 <isr_common_stub>

c0100644 <isr12>:
c0100644:	fa                   	cli    
c0100645:	6a 0c                	push   $0xc
c0100647:	e9 34 ff ff ff       	jmp    c0100580 <isr_common_stub>

c010064c <isr13>:
c010064c:	fa                   	cli    
c010064d:	6a 0d                	push   $0xd
c010064f:	e9 2c ff ff ff       	jmp    c0100580 <isr_common_stub>

c0100654 <isr14>:
c0100654:	fa                   	cli    
c0100655:	6a 0e                	push   $0xe
c0100657:	e9 24 ff ff ff       	jmp    c0100580 <isr_common_stub>

c010065c <isr15>:
c010065c:	fa                   	cli    
c010065d:	6a 00                	push   $0x0
c010065f:	6a 0f                	push   $0xf
c0100661:	e9 1a ff ff ff       	jmp    c0100580 <isr_common_stub>

c0100666 <isr16>:
c0100666:	fa                   	cli    
c0100667:	6a 00                	push   $0x0
c0100669:	6a 10                	push   $0x10
c010066b:	e9 10 ff ff ff       	jmp    c0100580 <isr_common_stub>

c0100670 <isr17>:
c0100670:	fa                   	cli    
c0100671:	6a 00                	push   $0x0
c0100673:	6a 11                	push   $0x11
c0100675:	e9 06 ff ff ff       	jmp    c0100580 <isr_common_stub>

c010067a <isr18>:
c010067a:	fa                   	cli    
c010067b:	6a 00                	push   $0x0
c010067d:	6a 12                	push   $0x12
c010067f:	e9 fc fe ff ff       	jmp    c0100580 <isr_common_stub>

c0100684 <isr19>:
c0100684:	fa                   	cli    
c0100685:	6a 00                	push   $0x0
c0100687:	6a 13                	push   $0x13
c0100689:	e9 f2 fe ff ff       	jmp    c0100580 <isr_common_stub>

c010068e <isr20>:
c010068e:	fa                   	cli    
c010068f:	6a 00                	push   $0x0
c0100691:	6a 14                	push   $0x14
c0100693:	e9 e8 fe ff ff       	jmp    c0100580 <isr_common_stub>

c0100698 <isr21>:
c0100698:	fa                   	cli    
c0100699:	6a 00                	push   $0x0
c010069b:	6a 15                	push   $0x15
c010069d:	e9 de fe ff ff       	jmp    c0100580 <isr_common_stub>

c01006a2 <isr22>:
c01006a2:	fa                   	cli    
c01006a3:	6a 00                	push   $0x0
c01006a5:	6a 16                	push   $0x16
c01006a7:	e9 d4 fe ff ff       	jmp    c0100580 <isr_common_stub>

c01006ac <isr23>:
c01006ac:	fa                   	cli    
c01006ad:	6a 00                	push   $0x0
c01006af:	6a 17                	push   $0x17
c01006b1:	e9 ca fe ff ff       	jmp    c0100580 <isr_common_stub>

c01006b6 <isr24>:
c01006b6:	fa                   	cli    
c01006b7:	6a 00                	push   $0x0
c01006b9:	6a 18                	push   $0x18
c01006bb:	e9 c0 fe ff ff       	jmp    c0100580 <isr_common_stub>

c01006c0 <isr25>:
c01006c0:	fa                   	cli    
c01006c1:	6a 00                	push   $0x0
c01006c3:	6a 19                	push   $0x19
c01006c5:	e9 b6 fe ff ff       	jmp    c0100580 <isr_common_stub>

c01006ca <isr26>:
c01006ca:	fa                   	cli    
c01006cb:	6a 00                	push   $0x0
c01006cd:	6a 1a                	push   $0x1a
c01006cf:	e9 ac fe ff ff       	jmp    c0100580 <isr_common_stub>

c01006d4 <isr27>:
c01006d4:	fa                   	cli    
c01006d5:	6a 00                	push   $0x0
c01006d7:	6a 1b                	push   $0x1b
c01006d9:	e9 a2 fe ff ff       	jmp    c0100580 <isr_common_stub>

c01006de <isr28>:
c01006de:	fa                   	cli    
c01006df:	6a 00                	push   $0x0
c01006e1:	6a 1c                	push   $0x1c
c01006e3:	e9 98 fe ff ff       	jmp    c0100580 <isr_common_stub>

c01006e8 <isr29>:
c01006e8:	fa                   	cli    
c01006e9:	6a 00                	push   $0x0
c01006eb:	6a 1d                	push   $0x1d
c01006ed:	e9 8e fe ff ff       	jmp    c0100580 <isr_common_stub>

c01006f2 <isr30>:
c01006f2:	fa                   	cli    
c01006f3:	6a 00                	push   $0x0
c01006f5:	6a 1e                	push   $0x1e
c01006f7:	e9 84 fe ff ff       	jmp    c0100580 <isr_common_stub>

c01006fc <isr31>:
c01006fc:	fa                   	cli    
c01006fd:	6a 00                	push   $0x0
c01006ff:	6a 1f                	push   $0x1f
c0100701:	e9 7a fe ff ff       	jmp    c0100580 <isr_common_stub>

c0100706 <irq0>:
c0100706:	fa                   	cli    
c0100707:	6a 00                	push   $0x0
c0100709:	6a 20                	push   $0x20
c010070b:	e9 9f fe ff ff       	jmp    c01005af <irq_common_stub>

c0100710 <irq1>:
c0100710:	fa                   	cli    
c0100711:	6a 01                	push   $0x1
c0100713:	6a 21                	push   $0x21
c0100715:	e9 95 fe ff ff       	jmp    c01005af <irq_common_stub>

c010071a <irq2>:
c010071a:	fa                   	cli    
c010071b:	6a 02                	push   $0x2
c010071d:	6a 22                	push   $0x22
c010071f:	e9 8b fe ff ff       	jmp    c01005af <irq_common_stub>

c0100724 <irq3>:
c0100724:	fa                   	cli    
c0100725:	6a 03                	push   $0x3
c0100727:	6a 23                	push   $0x23
c0100729:	e9 81 fe ff ff       	jmp    c01005af <irq_common_stub>

c010072e <irq4>:
c010072e:	fa                   	cli    
c010072f:	6a 04                	push   $0x4
c0100731:	6a 24                	push   $0x24
c0100733:	e9 77 fe ff ff       	jmp    c01005af <irq_common_stub>

c0100738 <irq5>:
c0100738:	fa                   	cli    
c0100739:	6a 05                	push   $0x5
c010073b:	6a 25                	push   $0x25
c010073d:	e9 6d fe ff ff       	jmp    c01005af <irq_common_stub>

c0100742 <irq6>:
c0100742:	fa                   	cli    
c0100743:	6a 06                	push   $0x6
c0100745:	6a 26                	push   $0x26
c0100747:	e9 63 fe ff ff       	jmp    c01005af <irq_common_stub>

c010074c <irq7>:
c010074c:	fa                   	cli    
c010074d:	6a 07                	push   $0x7
c010074f:	6a 27                	push   $0x27
c0100751:	e9 59 fe ff ff       	jmp    c01005af <irq_common_stub>

c0100756 <irq8>:
c0100756:	fa                   	cli    
c0100757:	6a 08                	push   $0x8
c0100759:	6a 28                	push   $0x28
c010075b:	e9 4f fe ff ff       	jmp    c01005af <irq_common_stub>

c0100760 <irq9>:
c0100760:	fa                   	cli    
c0100761:	6a 09                	push   $0x9
c0100763:	6a 29                	push   $0x29
c0100765:	e9 45 fe ff ff       	jmp    c01005af <irq_common_stub>

c010076a <irq10>:
c010076a:	fa                   	cli    
c010076b:	6a 0a                	push   $0xa
c010076d:	6a 2a                	push   $0x2a
c010076f:	e9 3b fe ff ff       	jmp    c01005af <irq_common_stub>

c0100774 <irq11>:
c0100774:	fa                   	cli    
c0100775:	6a 0b                	push   $0xb
c0100777:	6a 2b                	push   $0x2b
c0100779:	e9 31 fe ff ff       	jmp    c01005af <irq_common_stub>

c010077e <irq12>:
c010077e:	fa                   	cli    
c010077f:	6a 0c                	push   $0xc
c0100781:	6a 2c                	push   $0x2c
c0100783:	e9 27 fe ff ff       	jmp    c01005af <irq_common_stub>

c0100788 <irq13>:
c0100788:	fa                   	cli    
c0100789:	6a 0d                	push   $0xd
c010078b:	6a 2d                	push   $0x2d
c010078d:	e9 1d fe ff ff       	jmp    c01005af <irq_common_stub>

c0100792 <irq14>:
c0100792:	fa                   	cli    
c0100793:	6a 0e                	push   $0xe
c0100795:	6a 2e                	push   $0x2e
c0100797:	e9 13 fe ff ff       	jmp    c01005af <irq_common_stub>

c010079c <irq15>:
c010079c:	fa                   	cli    
c010079d:	6a 0f                	push   $0xf
c010079f:	6a 2f                	push   $0x2f
c01007a1:	e9 09 fe ff ff       	jmp    c01005af <irq_common_stub>
c01007a6:	66 90                	xchg   %ax,%ax
c01007a8:	66 90                	xchg   %ax,%ax
c01007aa:	66 90                	xchg   %ax,%ax
c01007ac:	66 90                	xchg   %ax,%ax
c01007ae:	66 90                	xchg   %ax,%ax

c01007b0 <_gdt_flush>:
c01007b0:	0f 01 15 b0 b0 10 c0 	lgdtl  0xc010b0b0
c01007b7:	66 b8 10 00          	mov    $0x10,%ax
c01007bb:	8e d8                	mov    %eax,%ds
c01007bd:	8e c0                	mov    %eax,%es
c01007bf:	8e e0                	mov    %eax,%fs
c01007c1:	8e e8                	mov    %eax,%gs
c01007c3:	8e d0                	mov    %eax,%ss
c01007c5:	ea cc 07 10 c0 08 00 	ljmp   $0x8,$0xc01007cc

c01007cc <flush>:
c01007cc:	c3                   	ret    

c01007cd <_tss_flush>:
c01007cd:	66 b8 2b 00          	mov    $0x2b,%ax
c01007d1:	0f 00 d8             	ltr    %ax
c01007d4:	c3                   	ret    

c01007d5 <_loadPageDirectory>:
c01007d5:	55                   	push   %ebp
c01007d6:	89 e5                	mov    %esp,%ebp
c01007d8:	8b 44 24 08          	mov    0x8(%esp),%eax
c01007dc:	0f 22 d8             	mov    %eax,%cr3
c01007df:	89 ec                	mov    %ebp,%esp
c01007e1:	5d                   	pop    %ebp
c01007e2:	c3                   	ret    

c01007e3 <_spin_lock>:
c01007e3:	55                   	push   %ebp
c01007e4:	89 e5                	mov    %esp,%ebp
c01007e6:	8b 5d 08             	mov    0x8(%ebp),%ebx

c01007e9 <_try_spin_lock>:
c01007e9:	b8 01 00 00 00       	mov    $0x1,%eax
c01007ee:	87 03                	xchg   %eax,(%ebx)
c01007f0:	83 f8 00             	cmp    $0x0,%eax
c01007f3:	75 f4                	jne    c01007e9 <_try_spin_lock>
c01007f5:	5d                   	pop    %ebp
c01007f6:	c3                   	ret    

c01007f7 <_test_spin_lock>:
c01007f7:	55                   	push   %ebp
c01007f8:	89 e5                	mov    %esp,%ebp
c01007fa:	8b 5d 08             	mov    0x8(%ebp),%ebx

c01007fd <_test_try_spin_lock>:
c01007fd:	b8 01 00 00 00       	mov    $0x1,%eax
c0100802:	87 03                	xchg   %eax,(%ebx)
c0100804:	5d                   	pop    %ebp
c0100805:	c3                   	ret    

c0100806 <_free_lock>:
c0100806:	55                   	push   %ebp
c0100807:	89 e5                	mov    %esp,%ebp
c0100809:	8b 5d 08             	mov    0x8(%ebp),%ebx
c010080c:	c7 03 00 00 00 00    	movl   $0x0,(%ebx)
c0100812:	5d                   	pop    %ebp
c0100813:	c3                   	ret    

c0100814 <_switch_to_thread>:
c0100814:	8b 14 24             	mov    (%esp),%edx
c0100817:	8b 4c 24 04          	mov    0x4(%esp),%ecx
c010081b:	9c                   	pushf  
c010081c:	0e                   	push   %cs
c010081d:	52                   	push   %edx
c010081e:	53                   	push   %ebx
c010081f:	56                   	push   %esi
c0100820:	57                   	push   %edi
c0100821:	55                   	push   %ebp
c0100822:	1e                   	push   %ds
c0100823:	8b 3d 34 e0 10 c0    	mov    0xc010e034,%edi
c0100829:	89 27                	mov    %esp,(%edi)
c010082b:	89 ce                	mov    %ecx,%esi
c010082d:	89 35 34 e0 10 c0    	mov    %esi,0xc010e034
c0100833:	8b 26                	mov    (%esi),%esp
c0100835:	8b 46 08             	mov    0x8(%esi),%eax
c0100838:	8b 5e 04             	mov    0x4(%esi),%ebx
c010083b:	89 1d c4 b0 10 c0    	mov    %ebx,0xc010b0c4
c0100841:	c7 05 c0 b0 10 c0 10 	movl   $0x10,0xc010b0c0
c0100848:	00 00 00 
c010084b:	0f 20 d9             	mov    %cr3,%ecx
c010084e:	39 c8                	cmp    %ecx,%eax
c0100850:	74 03                	je     c0100855 <_switch_to_thread.done_paging>
c0100852:	0f 22 d8             	mov    %eax,%cr3

c0100855 <_switch_to_thread.done_paging>:
c0100855:	5b                   	pop    %ebx
c0100856:	8e db                	mov    %ebx,%ds
c0100858:	8e c3                	mov    %ebx,%es
c010085a:	8e eb                	mov    %ebx,%gs
c010085c:	8e e3                	mov    %ebx,%fs
c010085e:	5d                   	pop    %ebp
c010085f:	5f                   	pop    %edi
c0100860:	5e                   	pop    %esi
c0100861:	5b                   	pop    %ebx
c0100862:	cf                   	iret   

c0100863 <_syscall>:
c0100863:	55                   	push   %ebp
c0100864:	89 e5                	mov    %esp,%ebp
c0100866:	8b 45 08             	mov    0x8(%ebp),%eax
c0100869:	cd 1f                	int    $0x1f
c010086b:	5d                   	pop    %ebp
c010086c:	c3                   	ret    

c010086d <_setreg>:
c010086d:	55                   	push   %ebp
c010086e:	89 e5                	mov    %esp,%ebp
c0100870:	83 7d 08 00          	cmpl   $0x0,0x8(%ebp)
c0100874:	74 12                	je     c0100888 <c_eax>
c0100876:	83 7d 08 01          	cmpl   $0x1,0x8(%ebp)
c010087a:	74 11                	je     c010088d <c_ebx>
c010087c:	83 7d 08 02          	cmpl   $0x2,0x8(%ebp)
c0100880:	74 10                	je     c0100892 <c_ecx>
c0100882:	83 7d 08 03          	cmpl   $0x3,0x8(%ebp)
c0100886:	74 0f                	je     c0100897 <c_edx>

c0100888 <c_eax>:
c0100888:	8b 45 0c             	mov    0xc(%ebp),%eax
c010088b:	eb 0f                	jmp    c010089c <end>

c010088d <c_ebx>:
c010088d:	8b 5d 0c             	mov    0xc(%ebp),%ebx
c0100890:	eb 0a                	jmp    c010089c <end>

c0100892 <c_ecx>:
c0100892:	8b 4d 0c             	mov    0xc(%ebp),%ecx
c0100895:	eb 05                	jmp    c010089c <end>

c0100897 <c_edx>:
c0100897:	8b 55 0c             	mov    0xc(%ebp),%edx
c010089a:	eb 00                	jmp    c010089c <end>

c010089c <end>:
c010089c:	5d                   	pop    %ebp
c010089d:	c3                   	ret    

c010089e <kernel_main>:
c010089e:	55                   	push   %ebp
c010089f:	89 e5                	mov    %esp,%ebp
c01008a1:	83 ec 08             	sub    $0x8,%esp
c01008a4:	e8 6b 15 00 00       	call   c0101e14 <clearScreen>
c01008a9:	83 ec 0c             	sub    $0xc,%esp
c01008ac:	6a 0f                	push   $0xf
c01008ae:	e8 44 0e 00 00       	call   c01016f7 <setTextColor>
c01008b3:	83 c4 10             	add    $0x10,%esp
c01008b6:	83 ec 0c             	sub    $0xc,%esp
c01008b9:	68 34 00 00 00       	push   $0x34
c01008be:	e8 70 11 00 00       	call   c0101a33 <kprintf>
c01008c3:	83 c4 10             	add    $0x10,%esp
c01008c6:	e8 26 2d 00 00       	call   c01035f1 <gdt_install>
c01008cb:	83 ec 0c             	sub    $0xc,%esp
c01008ce:	68 47 00 00 00       	push   $0x47
c01008d3:	e8 fc 15 00 00       	call   c0101ed4 <kPrintOKMessage>
c01008d8:	83 c4 10             	add    $0x10,%esp
c01008db:	e8 e9 40 00 00       	call   c01049c9 <init_memory_ptrs>
c01008e0:	83 ec 08             	sub    $0x8,%esp
c01008e3:	ff 75 08             	push   0x8(%ebp)
c01008e6:	ff 75 0c             	push   0xc(%ebp)
c01008e9:	e8 d2 21 00 00       	call   c0102ac0 <save_multiboot2_info>
c01008ee:	83 c4 10             	add    $0x10,%esp
c01008f1:	83 ec 0c             	sub    $0xc,%esp
c01008f4:	68 18 b0 10 c0       	push   $0xc010b018
c01008f9:	e8 3c 45 00 00       	call   c0104e3a <parse_multiboot_info>
c01008fe:	83 c4 10             	add    $0x10,%esp
c0100901:	83 ec 0c             	sub    $0xc,%esp
c0100904:	68 57 00 00 00       	push   $0x57
c0100909:	e8 c6 15 00 00       	call   c0101ed4 <kPrintOKMessage>
c010090e:	83 c4 10             	add    $0x10,%esp
c0100911:	e8 0d 2e 00 00       	call   c0103723 <isr_install>
c0100916:	83 ec 0c             	sub    $0xc,%esp
c0100919:	68 70 00 00 00       	push   $0x70
c010091e:	e8 b1 15 00 00       	call   c0101ed4 <kPrintOKMessage>
c0100923:	83 c4 10             	add    $0x10,%esp
c0100926:	83 ec 0c             	sub    $0xc,%esp
c0100929:	68 86 00 00 00       	push   $0x86
c010092e:	e8 a1 15 00 00       	call   c0101ed4 <kPrintOKMessage>
c0100933:	83 c4 10             	add    $0x10,%esp
c0100936:	e8 8b 43 00 00       	call   c0104cc6 <memory_alloc_init>
c010093b:	83 ec 0c             	sub    $0xc,%esp
c010093e:	68 95 00 00 00       	push   $0x95
c0100943:	e8 8c 15 00 00       	call   c0101ed4 <kPrintOKMessage>
c0100948:	83 c4 10             	add    $0x10,%esp
c010094b:	83 ec 0c             	sub    $0xc,%esp
c010094e:	68 a9 00 00 00       	push   $0xa9
c0100953:	e8 7c 15 00 00       	call   c0101ed4 <kPrintOKMessage>
c0100958:	83 c4 10             	add    $0x10,%esp
c010095b:	e8 ea 4b 00 00       	call   c010554a <init_kernel_paging>
c0100960:	e8 29 4b 00 00       	call   c010548e <init_test_user_paging>
c0100965:	83 ec 0c             	sub    $0xc,%esp
c0100968:	68 c3 00 00 00       	push   $0xc3
c010096d:	e8 62 15 00 00       	call   c0101ed4 <kPrintOKMessage>
c0100972:	83 c4 10             	add    $0x10,%esp
c0100975:	83 ec 0c             	sub    $0xc,%esp
c0100978:	68 da 00 00 00       	push   $0xda
c010097d:	e8 52 15 00 00       	call   c0101ed4 <kPrintOKMessage>
c0100982:	83 c4 10             	add    $0x10,%esp
c0100985:	e8 53 4d 00 00       	call   c01056dd <kMemCacheInit>
c010098a:	83 ec 0c             	sub    $0xc,%esp
c010098d:	68 ef 00 00 00       	push   $0xef
c0100992:	e8 3d 15 00 00       	call   c0101ed4 <kPrintOKMessage>
c0100997:	83 c4 10             	add    $0x10,%esp
c010099a:	e8 85 5c 00 00       	call   c0106624 <init_kernel_locks>
c010099f:	e8 b7 f7 ff ff       	call   c010015b <init_files>
c01009a4:	83 ec 0c             	sub    $0xc,%esp
c01009a7:	68 07 01 00 00       	push   $0x107
c01009ac:	e8 23 15 00 00       	call   c0101ed4 <kPrintOKMessage>
c01009b1:	83 c4 10             	add    $0x10,%esp
c01009b4:	e8 a1 53 00 00       	call   c0105d5a <init_kernel_proc>
c01009b9:	e8 f9 5a 00 00       	call   c01064b7 <init_work_queue>
c01009be:	83 ec 0c             	sub    $0xc,%esp
c01009c1:	68 20 01 00 00       	push   $0x120
c01009c6:	e8 09 15 00 00       	call   c0101ed4 <kPrintOKMessage>
c01009cb:	83 c4 10             	add    $0x10,%esp
c01009ce:	83 ec 0c             	sub    $0xc,%esp
c01009d1:	68 36 01 00 00       	push   $0x136
c01009d6:	e8 f9 14 00 00       	call   c0101ed4 <kPrintOKMessage>
c01009db:	83 c4 10             	add    $0x10,%esp
c01009de:	e8 69 0d 00 00       	call   c010174c <resetScreenColors>
c01009e3:	e8 24 33 00 00       	call   c0103d0c <irq_install>
c01009e8:	a1 58 b0 10 c0       	mov    0xc010b058,%eax
c01009ed:	8b 15 5c b0 10 c0    	mov    0xc010b05c,%edx
c01009f3:	83 ec 0c             	sub    $0xc,%esp
c01009f6:	50                   	push   %eax
c01009f7:	e8 b1 20 00 00       	call   c0102aad <srand>
c01009fc:	83 c4 10             	add    $0x10,%esp
c01009ff:	e8 a2 20 00 00       	call   c0102aa6 <hlt>
c0100a04:	eb f9                	jmp    c01009ff <kernel_main+0x161>

c0100a06 <list_length>:
c0100a06:	55                   	push   %ebp
c0100a07:	89 e5                	mov    %esp,%ebp
c0100a09:	83 ec 10             	sub    $0x10,%esp
c0100a0c:	83 7d 08 00          	cmpl   $0x0,0x8(%ebp)
c0100a10:	75 07                	jne    c0100a19 <list_length+0x13>
c0100a12:	b8 00 00 00 00       	mov    $0x0,%eax
c0100a17:	eb 28                	jmp    c0100a41 <list_length+0x3b>
c0100a19:	c7 45 f8 00 00 00 00 	movl   $0x0,-0x8(%ebp)
c0100a20:	8b 45 08             	mov    0x8(%ebp),%eax
c0100a23:	8b 00                	mov    (%eax),%eax
c0100a25:	89 45 fc             	mov    %eax,-0x4(%ebp)
c0100a28:	eb 0c                	jmp    c0100a36 <list_length+0x30>
c0100a2a:	83 45 f8 01          	addl   $0x1,-0x8(%ebp)
c0100a2e:	8b 45 fc             	mov    -0x4(%ebp),%eax
c0100a31:	8b 00                	mov    (%eax),%eax
c0100a33:	89 45 fc             	mov    %eax,-0x4(%ebp)
c0100a36:	8b 45 fc             	mov    -0x4(%ebp),%eax
c0100a39:	3b 45 08             	cmp    0x8(%ebp),%eax
c0100a3c:	75 ec                	jne    c0100a2a <list_length+0x24>
c0100a3e:	8b 45 f8             	mov    -0x8(%ebp),%eax
c0100a41:	c9                   	leave  
c0100a42:	c3                   	ret    

c0100a43 <list_remove>:
c0100a43:	55                   	push   %ebp
c0100a44:	89 e5                	mov    %esp,%ebp
c0100a46:	83 ec 10             	sub    $0x10,%esp
c0100a49:	8b 45 08             	mov    0x8(%ebp),%eax
c0100a4c:	8b 40 04             	mov    0x4(%eax),%eax
c0100a4f:	89 45 fc             	mov    %eax,-0x4(%ebp)
c0100a52:	8b 45 08             	mov    0x8(%ebp),%eax
c0100a55:	8b 00                	mov    (%eax),%eax
c0100a57:	89 45 f8             	mov    %eax,-0x8(%ebp)
c0100a5a:	8b 45 fc             	mov    -0x4(%ebp),%eax
c0100a5d:	8b 55 f8             	mov    -0x8(%ebp),%edx
c0100a60:	89 10                	mov    %edx,(%eax)
c0100a62:	8b 45 f8             	mov    -0x8(%ebp),%eax
c0100a65:	8b 55 fc             	mov    -0x4(%ebp),%edx
c0100a68:	89 50 04             	mov    %edx,0x4(%eax)
c0100a6b:	90                   	nop
c0100a6c:	c9                   	leave  
c0100a6d:	c3                   	ret    

c0100a6e <pick_next_thread>:
c0100a6e:	55                   	push   %ebp
c0100a6f:	89 e5                	mov    %esp,%ebp
c0100a71:	83 ec 38             	sub    $0x38,%esp
c0100a74:	c7 45 f0 00 00 00 00 	movl   $0x0,-0x10(%ebp)
c0100a7b:	c7 45 dc 00 00 00 00 	movl   $0x0,-0x24(%ebp)
c0100a82:	c7 45 ec 00 00 00 00 	movl   $0x0,-0x14(%ebp)
c0100a89:	c7 45 e8 00 00 00 00 	movl   $0x0,-0x18(%ebp)
c0100a90:	c7 45 e0 00 00 00 00 	movl   $0x0,-0x20(%ebp)
c0100a97:	c7 45 e4 00 00 00 00 	movl   $0x0,-0x1c(%ebp)
c0100a9e:	a1 1c e0 10 c0       	mov    0xc010e01c,%eax
c0100aa3:	89 45 f4             	mov    %eax,-0xc(%ebp)
c0100aa6:	eb 6d                	jmp    c0100b15 <pick_next_thread+0xa7>
c0100aa8:	8b 45 f4             	mov    -0xc(%ebp),%eax
c0100aab:	89 45 d0             	mov    %eax,-0x30(%ebp)
c0100aae:	8b 45 d0             	mov    -0x30(%ebp),%eax
c0100ab1:	83 e8 50             	sub    $0x50,%eax
c0100ab4:	89 45 cc             	mov    %eax,-0x34(%ebp)
c0100ab7:	83 7d f0 00          	cmpl   $0x0,-0x10(%ebp)
c0100abb:	75 17                	jne    c0100ad4 <pick_next_thread+0x66>
c0100abd:	8b 45 cc             	mov    -0x34(%ebp),%eax
c0100ac0:	8b 50 30             	mov    0x30(%eax),%edx
c0100ac3:	8b 40 2c             	mov    0x2c(%eax),%eax
c0100ac6:	89 45 e0             	mov    %eax,-0x20(%ebp)
c0100ac9:	89 55 e4             	mov    %edx,-0x1c(%ebp)
c0100acc:	8b 45 cc             	mov    -0x34(%ebp),%eax
c0100acf:	89 45 e8             	mov    %eax,-0x18(%ebp)
c0100ad2:	eb 28                	jmp    c0100afc <pick_next_thread+0x8e>
c0100ad4:	8b 45 cc             	mov    -0x34(%ebp),%eax
c0100ad7:	8b 50 30             	mov    0x30(%eax),%edx
c0100ada:	8b 40 2c             	mov    0x2c(%eax),%eax
c0100add:	3b 45 e0             	cmp    -0x20(%ebp),%eax
c0100ae0:	89 d0                	mov    %edx,%eax
c0100ae2:	1b 45 e4             	sbb    -0x1c(%ebp),%eax
c0100ae5:	73 15                	jae    c0100afc <pick_next_thread+0x8e>
c0100ae7:	8b 45 cc             	mov    -0x34(%ebp),%eax
c0100aea:	8b 50 30             	mov    0x30(%eax),%edx
c0100aed:	8b 40 2c             	mov    0x2c(%eax),%eax
c0100af0:	89 45 e0             	mov    %eax,-0x20(%ebp)
c0100af3:	89 55 e4             	mov    %edx,-0x1c(%ebp)
c0100af6:	8b 45 cc             	mov    -0x34(%ebp),%eax
c0100af9:	89 45 e8             	mov    %eax,-0x18(%ebp)
c0100afc:	8b 45 cc             	mov    -0x34(%ebp),%eax
c0100aff:	0f b6 40 28          	movzbl 0x28(%eax),%eax
c0100b03:	0f b6 c0             	movzbl %al,%eax
c0100b06:	01 45 ec             	add    %eax,-0x14(%ebp)
c0100b09:	83 45 f0 01          	addl   $0x1,-0x10(%ebp)
c0100b0d:	8b 45 f4             	mov    -0xc(%ebp),%eax
c0100b10:	8b 00                	mov    (%eax),%eax
c0100b12:	89 45 f4             	mov    %eax,-0xc(%ebp)
c0100b15:	81 7d f4 1c e0 10 c0 	cmpl   $0xc010e01c,-0xc(%ebp)
c0100b1c:	75 8a                	jne    c0100aa8 <pick_next_thread+0x3a>
c0100b1e:	8b 45 ec             	mov    -0x14(%ebp),%eax
c0100b21:	ba 00 00 00 00       	mov    $0x0,%edx
c0100b26:	f7 75 f0             	divl   -0x10(%ebp)
c0100b29:	89 45 dc             	mov    %eax,-0x24(%ebp)
c0100b2c:	b8 64 00 00 00       	mov    $0x64,%eax
c0100b31:	ba 00 00 00 00       	mov    $0x0,%edx
c0100b36:	f7 75 f0             	divl   -0x10(%ebp)
c0100b39:	89 45 d8             	mov    %eax,-0x28(%ebp)
c0100b3c:	8b 55 dc             	mov    -0x24(%ebp),%edx
c0100b3f:	8b 45 e8             	mov    -0x18(%ebp),%eax
c0100b42:	0f b6 40 28          	movzbl 0x28(%eax),%eax
c0100b46:	0f b6 c8             	movzbl %al,%ecx
c0100b49:	89 d0                	mov    %edx,%eax
c0100b4b:	29 c8                	sub    %ecx,%eax
c0100b4d:	01 c0                	add    %eax,%eax
c0100b4f:	89 45 d4             	mov    %eax,-0x2c(%ebp)
c0100b52:	8b 45 d4             	mov    -0x2c(%ebp),%eax
c0100b55:	01 45 d8             	add    %eax,-0x28(%ebp)
c0100b58:	83 7d d8 00          	cmpl   $0x0,-0x28(%ebp)
c0100b5c:	7f 17                	jg     c0100b75 <pick_next_thread+0x107>
c0100b5e:	83 ec 0c             	sub    $0xc,%esp
c0100b61:	6a 01                	push   $0x1
c0100b63:	e8 9a 16 00 00       	call   c0102202 <millis_to_ticks>
c0100b68:	83 c4 10             	add    $0x10,%esp
c0100b6b:	89 c2                	mov    %eax,%edx
c0100b6d:	8b 45 e8             	mov    -0x18(%ebp),%eax
c0100b70:	89 50 3c             	mov    %edx,0x3c(%eax)
c0100b73:	eb 17                	jmp    c0100b8c <pick_next_thread+0x11e>
c0100b75:	8b 45 d8             	mov    -0x28(%ebp),%eax
c0100b78:	83 ec 0c             	sub    $0xc,%esp
c0100b7b:	50                   	push   %eax
c0100b7c:	e8 81 16 00 00       	call   c0102202 <millis_to_ticks>
c0100b81:	83 c4 10             	add    $0x10,%esp
c0100b84:	89 c2                	mov    %eax,%edx
c0100b86:	8b 45 e8             	mov    -0x18(%ebp),%eax
c0100b89:	89 50 3c             	mov    %edx,0x3c(%eax)
c0100b8c:	8b 45 e8             	mov    -0x18(%ebp),%eax
c0100b8f:	c9                   	leave  
c0100b90:	c3                   	ret    

c0100b91 <wake_up_timers>:
c0100b91:	55                   	push   %ebp
c0100b92:	89 e5                	mov    %esp,%ebp
c0100b94:	53                   	push   %ebx
c0100b95:	83 ec 14             	sub    $0x14,%esp
c0100b98:	c7 45 f4 00 00 00 00 	movl   $0x0,-0xc(%ebp)
c0100b9f:	68 24 b0 10 c0       	push   $0xc010b024
c0100ba4:	e8 5d fe ff ff       	call   c0100a06 <list_length>
c0100ba9:	83 c4 04             	add    $0x4,%esp
c0100bac:	85 c0                	test   %eax,%eax
c0100bae:	7e 7e                	jle    c0100c2e <wake_up_timers+0x9d>
c0100bb0:	a1 24 b0 10 c0       	mov    0xc010b024,%eax
c0100bb5:	89 45 f0             	mov    %eax,-0x10(%ebp)
c0100bb8:	eb 6b                	jmp    c0100c25 <wake_up_timers+0x94>
c0100bba:	8b 45 f0             	mov    -0x10(%ebp),%eax
c0100bbd:	89 45 ec             	mov    %eax,-0x14(%ebp)
c0100bc0:	8b 45 ec             	mov    -0x14(%ebp),%eax
c0100bc3:	83 e8 08             	sub    $0x8,%eax
c0100bc6:	89 45 e8             	mov    %eax,-0x18(%ebp)
c0100bc9:	8b 45 e8             	mov    -0x18(%ebp),%eax
c0100bcc:	8b 00                	mov    (%eax),%eax
c0100bce:	89 c1                	mov    %eax,%ecx
c0100bd0:	bb 00 00 00 00       	mov    $0x0,%ebx
c0100bd5:	a1 58 b0 10 c0       	mov    0xc010b058,%eax
c0100bda:	8b 15 5c b0 10 c0    	mov    0xc010b05c,%edx
c0100be0:	39 c8                	cmp    %ecx,%eax
c0100be2:	89 d0                	mov    %edx,%eax
c0100be4:	19 d8                	sbb    %ebx,%eax
c0100be6:	72 35                	jb     c0100c1d <wake_up_timers+0x8c>
c0100be8:	8b 45 e8             	mov    -0x18(%ebp),%eax
c0100beb:	83 c0 08             	add    $0x8,%eax
c0100bee:	50                   	push   %eax
c0100bef:	e8 4f fe ff ff       	call   c0100a43 <list_remove>
c0100bf4:	83 c4 04             	add    $0x4,%esp
c0100bf7:	8b 45 e8             	mov    -0x18(%ebp),%eax
c0100bfa:	8b 40 04             	mov    0x4(%eax),%eax
c0100bfd:	83 ec 0c             	sub    $0xc,%esp
c0100c00:	50                   	push   %eax
c0100c01:	e8 d5 4e 00 00       	call   c0105adb <wake_up_thread>
c0100c06:	83 c4 10             	add    $0x10,%esp
c0100c09:	83 ec 0c             	sub    $0xc,%esp
c0100c0c:	ff 75 e8             	push   -0x18(%ebp)
c0100c0f:	e8 29 40 00 00       	call   c0104c3d <kfree_normal>
c0100c14:	83 c4 10             	add    $0x10,%esp
c0100c17:	83 45 f4 01          	addl   $0x1,-0xc(%ebp)
c0100c1b:	eb 82                	jmp    c0100b9f <wake_up_timers+0xe>
c0100c1d:	8b 45 f0             	mov    -0x10(%ebp),%eax
c0100c20:	8b 00                	mov    (%eax),%eax
c0100c22:	89 45 f0             	mov    %eax,-0x10(%ebp)
c0100c25:	81 7d f0 24 b0 10 c0 	cmpl   $0xc010b024,-0x10(%ebp)
c0100c2c:	75 8c                	jne    c0100bba <wake_up_timers+0x29>
c0100c2e:	8b 45 f4             	mov    -0xc(%ebp),%eax
c0100c31:	8b 5d fc             	mov    -0x4(%ebp),%ebx
c0100c34:	c9                   	leave  
c0100c35:	c3                   	ret    

c0100c36 <reschedule>:
c0100c36:	55                   	push   %ebp
c0100c37:	89 e5                	mov    %esp,%ebp
c0100c39:	57                   	push   %edi
c0100c3a:	56                   	push   %esi
c0100c3b:	53                   	push   %ebx
c0100c3c:	83 ec 1c             	sub    $0x1c,%esp
c0100c3f:	e8 2a fe ff ff       	call   c0100a6e <pick_next_thread>
c0100c44:	89 45 e4             	mov    %eax,-0x1c(%ebp)
c0100c47:	e8 de 18 00 00       	call   c010252a <rdtscl>
c0100c4c:	89 45 d8             	mov    %eax,-0x28(%ebp)
c0100c4f:	89 55 dc             	mov    %edx,-0x24(%ebp)
c0100c52:	8b 4d e4             	mov    -0x1c(%ebp),%ecx
c0100c55:	8b 45 d8             	mov    -0x28(%ebp),%eax
c0100c58:	8b 55 dc             	mov    -0x24(%ebp),%edx
c0100c5b:	89 41 34             	mov    %eax,0x34(%ecx)
c0100c5e:	89 51 38             	mov    %edx,0x38(%ecx)
c0100c61:	a1 34 e0 10 c0       	mov    0xc010e034,%eax
c0100c66:	8b 48 2c             	mov    0x2c(%eax),%ecx
c0100c69:	8b 58 30             	mov    0x30(%eax),%ebx
c0100c6c:	a1 34 e0 10 c0       	mov    0xc010e034,%eax
c0100c71:	8b 70 34             	mov    0x34(%eax),%esi
c0100c74:	8b 78 38             	mov    0x38(%eax),%edi
c0100c77:	8b 45 d8             	mov    -0x28(%ebp),%eax
c0100c7a:	8b 55 dc             	mov    -0x24(%ebp),%edx
c0100c7d:	29 f0                	sub    %esi,%eax
c0100c7f:	19 fa                	sbb    %edi,%edx
c0100c81:	8b 35 34 e0 10 c0    	mov    0xc010e034,%esi
c0100c87:	01 c8                	add    %ecx,%eax
c0100c89:	11 da                	adc    %ebx,%edx
c0100c8b:	89 46 2c             	mov    %eax,0x2c(%esi)
c0100c8e:	89 56 30             	mov    %edx,0x30(%esi)
c0100c91:	83 ec 0c             	sub    $0xc,%esp
c0100c94:	ff 75 e4             	push   -0x1c(%ebp)
c0100c97:	e8 78 fb ff ff       	call   c0100814 <_switch_to_thread>
c0100c9c:	83 c4 10             	add    $0x10,%esp
c0100c9f:	90                   	nop
c0100ca0:	8d 65 f4             	lea    -0xc(%ebp),%esp
c0100ca3:	5b                   	pop    %ebx
c0100ca4:	5e                   	pop    %esi
c0100ca5:	5f                   	pop    %edi
c0100ca6:	5d                   	pop    %ebp
c0100ca7:	c3                   	ret    

c0100ca8 <sys_exit>:
c0100ca8:	55                   	push   %ebp
c0100ca9:	89 e5                	mov    %esp,%ebp
c0100cab:	83 ec 18             	sub    $0x18,%esp
c0100cae:	a1 34 e0 10 c0       	mov    0xc010e034,%eax
c0100cb3:	89 45 f4             	mov    %eax,-0xc(%ebp)
c0100cb6:	83 ec 0c             	sub    $0xc,%esp
c0100cb9:	ff 75 f4             	push   -0xc(%ebp)
c0100cbc:	e8 52 4d 00 00       	call   c0105a13 <stop_thread>
c0100cc1:	83 c4 10             	add    $0x10,%esp
c0100cc4:	83 ec 0c             	sub    $0xc,%esp
c0100cc7:	ff 75 f4             	push   -0xc(%ebp)
c0100cca:	e8 52 4e 00 00       	call   c0105b21 <kill_process>
c0100ccf:	83 c4 10             	add    $0x10,%esp
c0100cd2:	8b 45 f4             	mov    -0xc(%ebp),%eax
c0100cd5:	8b 55 08             	mov    0x8(%ebp),%edx
c0100cd8:	89 90 94 00 00 00    	mov    %edx,0x94(%eax)
c0100cde:	e8 53 ff ff ff       	call   c0100c36 <reschedule>
c0100ce3:	90                   	nop
c0100ce4:	c9                   	leave  
c0100ce5:	c3                   	ret    

c0100ce6 <sys_wait4>:
c0100ce6:	55                   	push   %ebp
c0100ce7:	89 e5                	mov    %esp,%ebp
c0100ce9:	83 ec 18             	sub    $0x18,%esp
c0100cec:	a1 34 e0 10 c0       	mov    0xc010e034,%eax
c0100cf1:	89 45 f4             	mov    %eax,-0xc(%ebp)
c0100cf4:	8b 45 f4             	mov    -0xc(%ebp),%eax
c0100cf7:	8b 55 08             	mov    0x8(%ebp),%edx
c0100cfa:	89 90 90 00 00 00    	mov    %edx,0x90(%eax)
c0100d00:	a1 34 e0 10 c0       	mov    0xc010e034,%eax
c0100d05:	83 ec 0c             	sub    $0xc,%esp
c0100d08:	50                   	push   %eax
c0100d09:	e8 79 4d 00 00       	call   c0105a87 <sleep_thread>
c0100d0e:	83 c4 10             	add    $0x10,%esp
c0100d11:	e8 20 ff ff ff       	call   c0100c36 <reschedule>
c0100d16:	90                   	nop
c0100d17:	c9                   	leave  
c0100d18:	c3                   	ret    

c0100d19 <sys_wait4all>:
c0100d19:	55                   	push   %ebp
c0100d1a:	89 e5                	mov    %esp,%ebp
c0100d1c:	83 ec 08             	sub    $0x8,%esp
c0100d1f:	a1 34 e0 10 c0       	mov    0xc010e034,%eax
c0100d24:	83 ec 0c             	sub    $0xc,%esp
c0100d27:	50                   	push   %eax
c0100d28:	e8 5a 4d 00 00       	call   c0105a87 <sleep_thread>
c0100d2d:	83 c4 10             	add    $0x10,%esp
c0100d30:	a1 34 e0 10 c0       	mov    0xc010e034,%eax
c0100d35:	c6 80 8c 00 00 00 01 	movb   $0x1,0x8c(%eax)
c0100d3c:	e8 f5 fe ff ff       	call   c0100c36 <reschedule>
c0100d41:	90                   	nop
c0100d42:	c9                   	leave  
c0100d43:	c3                   	ret    

c0100d44 <sys_printf>:
c0100d44:	55                   	push   %ebp
c0100d45:	89 e5                	mov    %esp,%ebp
c0100d47:	83 ec 08             	sub    $0x8,%esp
c0100d4a:	83 ec 08             	sub    $0x8,%esp
c0100d4d:	ff 75 08             	push   0x8(%ebp)
c0100d50:	68 4c 01 00 00       	push   $0x14c
c0100d55:	e8 d9 0c 00 00       	call   c0101a33 <kprintf>
c0100d5a:	83 c4 10             	add    $0x10,%esp
c0100d5d:	90                   	nop
c0100d5e:	c9                   	leave  
c0100d5f:	c3                   	ret    

c0100d60 <sys_sleepms>:
c0100d60:	55                   	push   %ebp
c0100d61:	89 e5                	mov    %esp,%ebp
c0100d63:	83 ec 08             	sub    $0x8,%esp
c0100d66:	83 ec 0c             	sub    $0xc,%esp
c0100d69:	ff 75 08             	push   0x8(%ebp)
c0100d6c:	e8 2d 4c 00 00       	call   c010599e <sleep_ms>
c0100d71:	83 c4 10             	add    $0x10,%esp
c0100d74:	90                   	nop
c0100d75:	c9                   	leave  
c0100d76:	c3                   	ret    

c0100d77 <sys_random>:
c0100d77:	55                   	push   %ebp
c0100d78:	89 e5                	mov    %esp,%ebp
c0100d7a:	83 ec 08             	sub    $0x8,%esp
c0100d7d:	e8 b4 1c 00 00       	call   c0102a36 <rand>
c0100d82:	ba 00 00 00 00       	mov    $0x0,%edx
c0100d87:	f7 75 08             	divl   0x8(%ebp)
c0100d8a:	89 d0                	mov    %edx,%eax
c0100d8c:	c9                   	leave  
c0100d8d:	c3                   	ret    

c0100d8e <syscall_handler>:
c0100d8e:	55                   	push   %ebp
c0100d8f:	89 e5                	mov    %esp,%ebp
c0100d91:	83 ec 18             	sub    $0x18,%esp
c0100d94:	8b 45 08             	mov    0x8(%ebp),%eax
c0100d97:	8b 40 20             	mov    0x20(%eax),%eax
c0100d9a:	89 45 f4             	mov    %eax,-0xc(%ebp)
c0100d9d:	83 7d f4 06          	cmpl   $0x6,-0xc(%ebp)
c0100da1:	0f 87 80 00 00 00    	ja     c0100e27 <syscall_handler+0x99>
c0100da7:	8b 45 f4             	mov    -0xc(%ebp),%eax
c0100daa:	c1 e0 02             	shl    $0x2,%eax
c0100dad:	05 58 01 00 00       	add    $0x158,%eax
c0100db2:	8b 00                	mov    (%eax),%eax
c0100db4:	ff e0                	jmp    *%eax
c0100db6:	8b 45 08             	mov    0x8(%ebp),%eax
c0100db9:	8b 40 14             	mov    0x14(%eax),%eax
c0100dbc:	83 ec 0c             	sub    $0xc,%esp
c0100dbf:	50                   	push   %eax
c0100dc0:	e8 e3 fe ff ff       	call   c0100ca8 <sys_exit>
c0100dc5:	83 c4 10             	add    $0x10,%esp
c0100dc8:	eb 5e                	jmp    c0100e28 <syscall_handler+0x9a>
c0100dca:	8b 45 08             	mov    0x8(%ebp),%eax
c0100dcd:	8b 40 14             	mov    0x14(%eax),%eax
c0100dd0:	83 ec 0c             	sub    $0xc,%esp
c0100dd3:	50                   	push   %eax
c0100dd4:	e8 6b ff ff ff       	call   c0100d44 <sys_printf>
c0100dd9:	83 c4 10             	add    $0x10,%esp
c0100ddc:	eb 4a                	jmp    c0100e28 <syscall_handler+0x9a>
c0100dde:	8b 45 08             	mov    0x8(%ebp),%eax
c0100de1:	8b 40 14             	mov    0x14(%eax),%eax
c0100de4:	83 ec 0c             	sub    $0xc,%esp
c0100de7:	50                   	push   %eax
c0100de8:	e8 73 ff ff ff       	call   c0100d60 <sys_sleepms>
c0100ded:	83 c4 10             	add    $0x10,%esp
c0100df0:	eb 36                	jmp    c0100e28 <syscall_handler+0x9a>
c0100df2:	e8 22 ff ff ff       	call   c0100d19 <sys_wait4all>
c0100df7:	eb 2f                	jmp    c0100e28 <syscall_handler+0x9a>
c0100df9:	8b 45 08             	mov    0x8(%ebp),%eax
c0100dfc:	8b 40 14             	mov    0x14(%eax),%eax
c0100dff:	83 ec 0c             	sub    $0xc,%esp
c0100e02:	50                   	push   %eax
c0100e03:	e8 de fe ff ff       	call   c0100ce6 <sys_wait4>
c0100e08:	83 c4 10             	add    $0x10,%esp
c0100e0b:	eb 1b                	jmp    c0100e28 <syscall_handler+0x9a>
c0100e0d:	8b 45 08             	mov    0x8(%ebp),%eax
c0100e10:	8b 40 14             	mov    0x14(%eax),%eax
c0100e13:	83 ec 0c             	sub    $0xc,%esp
c0100e16:	50                   	push   %eax
c0100e17:	e8 5b ff ff ff       	call   c0100d77 <sys_random>
c0100e1c:	83 c4 10             	add    $0x10,%esp
c0100e1f:	8b 55 08             	mov    0x8(%ebp),%edx
c0100e22:	89 42 20             	mov    %eax,0x20(%edx)
c0100e25:	eb 01                	jmp    c0100e28 <syscall_handler+0x9a>
c0100e27:	90                   	nop
c0100e28:	8b 45 08             	mov    0x8(%ebp),%eax
c0100e2b:	8b 40 2c             	mov    0x2c(%eax),%eax
c0100e2e:	8d 50 02             	lea    0x2(%eax),%edx
c0100e31:	8b 45 08             	mov    0x8(%ebp),%eax
c0100e34:	89 50 2c             	mov    %edx,0x2c(%eax)
c0100e37:	90                   	nop
c0100e38:	c9                   	leave  
c0100e39:	c3                   	ret    

c0100e3a <LIST_INIT>:
c0100e3a:	55                   	push   %ebp
c0100e3b:	89 e5                	mov    %esp,%ebp
c0100e3d:	8b 45 08             	mov    0x8(%ebp),%eax
c0100e40:	8b 55 08             	mov    0x8(%ebp),%edx
c0100e43:	89 10                	mov    %edx,(%eax)
c0100e45:	8b 45 08             	mov    0x8(%ebp),%eax
c0100e48:	8b 55 08             	mov    0x8(%ebp),%edx
c0100e4b:	89 50 04             	mov    %edx,0x4(%eax)
c0100e4e:	90                   	nop
c0100e4f:	5d                   	pop    %ebp
c0100e50:	c3                   	ret    

c0100e51 <init_kernel_timers>:
c0100e51:	55                   	push   %ebp
c0100e52:	89 e5                	mov    %esp,%ebp
c0100e54:	68 24 b0 10 c0       	push   $0xc010b024
c0100e59:	e8 dc ff ff ff       	call   c0100e3a <LIST_INIT>
c0100e5e:	83 c4 04             	add    $0x4,%esp
c0100e61:	90                   	nop
c0100e62:	c9                   	leave  
c0100e63:	c3                   	ret    

c0100e64 <LIST_INIT>:
c0100e64:	55                   	push   %ebp
c0100e65:	89 e5                	mov    %esp,%ebp
c0100e67:	8b 45 08             	mov    0x8(%ebp),%eax
c0100e6a:	8b 55 08             	mov    0x8(%ebp),%edx
c0100e6d:	89 10                	mov    %edx,(%eax)
c0100e6f:	8b 45 08             	mov    0x8(%ebp),%eax
c0100e72:	8b 55 08             	mov    0x8(%ebp),%edx
c0100e75:	89 50 04             	mov    %edx,0x4(%eax)
c0100e78:	90                   	nop
c0100e79:	5d                   	pop    %ebp
c0100e7a:	c3                   	ret    

c0100e7b <create_wait_queue>:
c0100e7b:	55                   	push   %ebp
c0100e7c:	89 e5                	mov    %esp,%ebp
c0100e7e:	83 ec 18             	sub    $0x18,%esp
c0100e81:	83 ec 0c             	sub    $0xc,%esp
c0100e84:	6a 00                	push   $0x0
c0100e86:	e8 49 3d 00 00       	call   c0104bd4 <normal_page_alloc>
c0100e8b:	83 c4 10             	add    $0x10,%esp
c0100e8e:	89 45 f4             	mov    %eax,-0xc(%ebp)
c0100e91:	8b 45 f4             	mov    -0xc(%ebp),%eax
c0100e94:	83 ec 0c             	sub    $0xc,%esp
c0100e97:	50                   	push   %eax
c0100e98:	e8 c7 ff ff ff       	call   c0100e64 <LIST_INIT>
c0100e9d:	83 c4 10             	add    $0x10,%esp
c0100ea0:	8b 45 f4             	mov    -0xc(%ebp),%eax
c0100ea3:	c9                   	leave  
c0100ea4:	c3                   	ret    

c0100ea5 <destroy_wait_queue>:
c0100ea5:	55                   	push   %ebp
c0100ea6:	89 e5                	mov    %esp,%ebp
c0100ea8:	83 ec 08             	sub    $0x8,%esp
c0100eab:	83 ec 0c             	sub    $0xc,%esp
c0100eae:	ff 75 08             	push   0x8(%ebp)
c0100eb1:	e8 87 3d 00 00       	call   c0104c3d <kfree_normal>
c0100eb6:	83 c4 10             	add    $0x10,%esp
c0100eb9:	90                   	nop
c0100eba:	c9                   	leave  
c0100ebb:	c3                   	ret    

c0100ebc <LIST_INIT>:
c0100ebc:	55                   	push   %ebp
c0100ebd:	89 e5                	mov    %esp,%ebp
c0100ebf:	8b 45 08             	mov    0x8(%ebp),%eax
c0100ec2:	8b 55 08             	mov    0x8(%ebp),%edx
c0100ec5:	89 10                	mov    %edx,(%eax)
c0100ec7:	8b 45 08             	mov    0x8(%ebp),%eax
c0100eca:	8b 55 08             	mov    0x8(%ebp),%edx
c0100ecd:	89 50 04             	mov    %edx,0x4(%eax)
c0100ed0:	90                   	nop
c0100ed1:	5d                   	pop    %ebp
c0100ed2:	c3                   	ret    

c0100ed3 <list_add_head>:
c0100ed3:	55                   	push   %ebp
c0100ed4:	89 e5                	mov    %esp,%ebp
c0100ed6:	83 ec 10             	sub    $0x10,%esp
c0100ed9:	8b 45 08             	mov    0x8(%ebp),%eax
c0100edc:	8b 00                	mov    (%eax),%eax
c0100ede:	89 45 fc             	mov    %eax,-0x4(%ebp)
c0100ee1:	8b 45 fc             	mov    -0x4(%ebp),%eax
c0100ee4:	8b 55 0c             	mov    0xc(%ebp),%edx
c0100ee7:	89 50 04             	mov    %edx,0x4(%eax)
c0100eea:	8b 45 0c             	mov    0xc(%ebp),%eax
c0100eed:	8b 55 fc             	mov    -0x4(%ebp),%edx
c0100ef0:	89 10                	mov    %edx,(%eax)
c0100ef2:	8b 45 0c             	mov    0xc(%ebp),%eax
c0100ef5:	8b 55 08             	mov    0x8(%ebp),%edx
c0100ef8:	89 50 04             	mov    %edx,0x4(%eax)
c0100efb:	8b 45 08             	mov    0x8(%ebp),%eax
c0100efe:	8b 55 0c             	mov    0xc(%ebp),%edx
c0100f01:	89 10                	mov    %edx,(%eax)
c0100f03:	90                   	nop
c0100f04:	c9                   	leave  
c0100f05:	c3                   	ret    

c0100f06 <create_user>:
c0100f06:	55                   	push   %ebp
c0100f07:	89 e5                	mov    %esp,%ebp
c0100f09:	83 ec 18             	sub    $0x18,%esp
c0100f0c:	83 ec 0c             	sub    $0xc,%esp
c0100f0f:	6a 00                	push   $0x0
c0100f11:	e8 be 3c 00 00       	call   c0104bd4 <normal_page_alloc>
c0100f16:	83 c4 10             	add    $0x10,%esp
c0100f19:	89 45 f4             	mov    %eax,-0xc(%ebp)
c0100f1c:	83 ec 0c             	sub    $0xc,%esp
c0100f1f:	6a 00                	push   $0x0
c0100f21:	e8 ae 3c 00 00       	call   c0104bd4 <normal_page_alloc>
c0100f26:	83 c4 10             	add    $0x10,%esp
c0100f29:	89 45 f0             	mov    %eax,-0x10(%ebp)
c0100f2c:	83 ec 0c             	sub    $0xc,%esp
c0100f2f:	ff 75 08             	push   0x8(%ebp)
c0100f32:	e8 d7 16 00 00       	call   c010260e <strlen>
c0100f37:	83 c4 10             	add    $0x10,%esp
c0100f3a:	89 45 ec             	mov    %eax,-0x14(%ebp)
c0100f3d:	83 ec 04             	sub    $0x4,%esp
c0100f40:	ff 75 ec             	push   -0x14(%ebp)
c0100f43:	ff 75 f0             	push   -0x10(%ebp)
c0100f46:	ff 75 08             	push   0x8(%ebp)
c0100f49:	e8 43 40 00 00       	call   c0104f91 <memcopy>
c0100f4e:	83 c4 10             	add    $0x10,%esp
c0100f51:	8b 55 f0             	mov    -0x10(%ebp),%edx
c0100f54:	8b 45 ec             	mov    -0x14(%ebp),%eax
c0100f57:	01 d0                	add    %edx,%eax
c0100f59:	c6 00 00             	movb   $0x0,(%eax)
c0100f5c:	8b 45 f4             	mov    -0xc(%ebp),%eax
c0100f5f:	8b 55 f0             	mov    -0x10(%ebp),%edx
c0100f62:	89 50 08             	mov    %edx,0x8(%eax)
c0100f65:	a1 34 b0 10 c0       	mov    0xc010b034,%eax
c0100f6a:	8d 50 01             	lea    0x1(%eax),%edx
c0100f6d:	89 15 34 b0 10 c0    	mov    %edx,0xc010b034
c0100f73:	8b 55 f4             	mov    -0xc(%ebp),%edx
c0100f76:	89 02                	mov    %eax,(%edx)
c0100f78:	8b 45 f4             	mov    -0xc(%ebp),%eax
c0100f7b:	c7 40 04 00 00 00 00 	movl   $0x0,0x4(%eax)
c0100f82:	8b 45 f4             	mov    -0xc(%ebp),%eax
c0100f85:	83 c0 0c             	add    $0xc,%eax
c0100f88:	83 ec 08             	sub    $0x8,%esp
c0100f8b:	50                   	push   %eax
c0100f8c:	68 2c b0 10 c0       	push   $0xc010b02c
c0100f91:	e8 3d ff ff ff       	call   c0100ed3 <list_add_head>
c0100f96:	83 c4 10             	add    $0x10,%esp
c0100f99:	8b 45 f4             	mov    -0xc(%ebp),%eax
c0100f9c:	c9                   	leave  
c0100f9d:	c3                   	ret    

c0100f9e <init_users>:
c0100f9e:	55                   	push   %ebp
c0100f9f:	89 e5                	mov    %esp,%ebp
c0100fa1:	83 ec 08             	sub    $0x8,%esp
c0100fa4:	68 2c b0 10 c0       	push   $0xc010b02c
c0100fa9:	e8 0e ff ff ff       	call   c0100ebc <LIST_INIT>
c0100fae:	83 c4 04             	add    $0x4,%esp
c0100fb1:	83 ec 0c             	sub    $0xc,%esp
c0100fb4:	68 74 01 00 00       	push   $0x174
c0100fb9:	e8 48 ff ff ff       	call   c0100f06 <create_user>
c0100fbe:	83 c4 10             	add    $0x10,%esp
c0100fc1:	a3 38 b0 10 c0       	mov    %eax,0xc010b038
c0100fc6:	90                   	nop
c0100fc7:	c9                   	leave  
c0100fc8:	c3                   	ret    

c0100fc9 <print_date>:
c0100fc9:	55                   	push   %ebp
c0100fca:	89 e5                	mov    %esp,%ebp
c0100fcc:	57                   	push   %edi
c0100fcd:	56                   	push   %esi
c0100fce:	53                   	push   %ebx
c0100fcf:	83 ec 0c             	sub    $0xc,%esp
c0100fd2:	0f b6 05 40 b0 10 c0 	movzbl 0xc010b040,%eax
c0100fd9:	0f b6 f8             	movzbl %al,%edi
c0100fdc:	0f b6 05 41 b0 10 c0 	movzbl 0xc010b041,%eax
c0100fe3:	0f b6 f0             	movzbl %al,%esi
c0100fe6:	0f b6 05 42 b0 10 c0 	movzbl 0xc010b042,%eax
c0100fed:	0f b6 d8             	movzbl %al,%ebx
c0100ff0:	8b 0d 48 b0 10 c0    	mov    0xc010b048,%ecx
c0100ff6:	0f b6 05 44 b0 10 c0 	movzbl 0xc010b044,%eax
c0100ffd:	0f b6 d0             	movzbl %al,%edx
c0101000:	0f b6 05 43 b0 10 c0 	movzbl 0xc010b043,%eax
c0101007:	0f b6 c0             	movzbl %al,%eax
c010100a:	83 ec 04             	sub    $0x4,%esp
c010100d:	57                   	push   %edi
c010100e:	56                   	push   %esi
c010100f:	53                   	push   %ebx
c0101010:	51                   	push   %ecx
c0101011:	52                   	push   %edx
c0101012:	50                   	push   %eax
c0101013:	68 79 01 00 00       	push   $0x179
c0101018:	e8 16 0a 00 00       	call   c0101a33 <kprintf>
c010101d:	83 c4 20             	add    $0x20,%esp
c0101020:	90                   	nop
c0101021:	8d 65 f4             	lea    -0xc(%ebp),%esp
c0101024:	5b                   	pop    %ebx
c0101025:	5e                   	pop    %esi
c0101026:	5f                   	pop    %edi
c0101027:	5d                   	pop    %ebp
c0101028:	c3                   	ret    

c0101029 <get_update_in_progress_flag>:
c0101029:	55                   	push   %ebp
c010102a:	89 e5                	mov    %esp,%ebp
c010102c:	83 ec 08             	sub    $0x8,%esp
c010102f:	83 ec 08             	sub    $0x8,%esp
c0101032:	6a 0a                	push   $0xa
c0101034:	6a 70                	push   $0x70
c0101036:	e8 08 2d 00 00       	call   c0103d43 <outb>
c010103b:	83 c4 10             	add    $0x10,%esp
c010103e:	83 ec 0c             	sub    $0xc,%esp
c0101041:	6a 71                	push   $0x71
c0101043:	e8 de 2c 00 00       	call   c0103d26 <inb>
c0101048:	83 c4 10             	add    $0x10,%esp
c010104b:	0f b6 c0             	movzbl %al,%eax
c010104e:	25 80 00 00 00       	and    $0x80,%eax
c0101053:	c9                   	leave  
c0101054:	c3                   	ret    

c0101055 <get_RTC_register>:
c0101055:	55                   	push   %ebp
c0101056:	89 e5                	mov    %esp,%ebp
c0101058:	83 ec 08             	sub    $0x8,%esp
c010105b:	8b 45 08             	mov    0x8(%ebp),%eax
c010105e:	0f b6 c0             	movzbl %al,%eax
c0101061:	83 ec 08             	sub    $0x8,%esp
c0101064:	50                   	push   %eax
c0101065:	6a 70                	push   $0x70
c0101067:	e8 d7 2c 00 00       	call   c0103d43 <outb>
c010106c:	83 c4 10             	add    $0x10,%esp
c010106f:	83 ec 0c             	sub    $0xc,%esp
c0101072:	6a 71                	push   $0x71
c0101074:	e8 ad 2c 00 00       	call   c0103d26 <inb>
c0101079:	83 c4 10             	add    $0x10,%esp
c010107c:	c9                   	leave  
c010107d:	c3                   	ret    

c010107e <read_rtc>:
c010107e:	55                   	push   %ebp
c010107f:	89 e5                	mov    %esp,%ebp
c0101081:	53                   	push   %ebx
c0101082:	83 ec 14             	sub    $0x14,%esp
c0101085:	90                   	nop
c0101086:	e8 9e ff ff ff       	call   c0101029 <get_update_in_progress_flag>
c010108b:	85 c0                	test   %eax,%eax
c010108d:	75 f7                	jne    c0101086 <read_rtc+0x8>
c010108f:	83 ec 0c             	sub    $0xc,%esp
c0101092:	6a 00                	push   $0x0
c0101094:	e8 bc ff ff ff       	call   c0101055 <get_RTC_register>
c0101099:	83 c4 10             	add    $0x10,%esp
c010109c:	a2 40 b0 10 c0       	mov    %al,0xc010b040
c01010a1:	83 ec 0c             	sub    $0xc,%esp
c01010a4:	6a 02                	push   $0x2
c01010a6:	e8 aa ff ff ff       	call   c0101055 <get_RTC_register>
c01010ab:	83 c4 10             	add    $0x10,%esp
c01010ae:	a2 41 b0 10 c0       	mov    %al,0xc010b041
c01010b3:	83 ec 0c             	sub    $0xc,%esp
c01010b6:	6a 04                	push   $0x4
c01010b8:	e8 98 ff ff ff       	call   c0101055 <get_RTC_register>
c01010bd:	83 c4 10             	add    $0x10,%esp
c01010c0:	a2 42 b0 10 c0       	mov    %al,0xc010b042
c01010c5:	83 ec 0c             	sub    $0xc,%esp
c01010c8:	6a 07                	push   $0x7
c01010ca:	e8 86 ff ff ff       	call   c0101055 <get_RTC_register>
c01010cf:	83 c4 10             	add    $0x10,%esp
c01010d2:	a2 43 b0 10 c0       	mov    %al,0xc010b043
c01010d7:	83 ec 0c             	sub    $0xc,%esp
c01010da:	6a 08                	push   $0x8
c01010dc:	e8 74 ff ff ff       	call   c0101055 <get_RTC_register>
c01010e1:	83 c4 10             	add    $0x10,%esp
c01010e4:	a2 44 b0 10 c0       	mov    %al,0xc010b044
c01010e9:	83 ec 0c             	sub    $0xc,%esp
c01010ec:	6a 09                	push   $0x9
c01010ee:	e8 62 ff ff ff       	call   c0101055 <get_RTC_register>
c01010f3:	83 c4 10             	add    $0x10,%esp
c01010f6:	0f b6 c0             	movzbl %al,%eax
c01010f9:	a3 48 b0 10 c0       	mov    %eax,0xc010b048
c01010fe:	a1 3c b0 10 c0       	mov    0xc010b03c,%eax
c0101103:	85 c0                	test   %eax,%eax
c0101105:	74 14                	je     c010111b <read_rtc+0x9d>
c0101107:	a1 3c b0 10 c0       	mov    0xc010b03c,%eax
c010110c:	83 ec 0c             	sub    $0xc,%esp
c010110f:	50                   	push   %eax
c0101110:	e8 40 ff ff ff       	call   c0101055 <get_RTC_register>
c0101115:	83 c4 10             	add    $0x10,%esp
c0101118:	88 45 f7             	mov    %al,-0x9(%ebp)
c010111b:	0f b6 05 40 b0 10 c0 	movzbl 0xc010b040,%eax
c0101122:	88 45 f6             	mov    %al,-0xa(%ebp)
c0101125:	0f b6 05 41 b0 10 c0 	movzbl 0xc010b041,%eax
c010112c:	88 45 f5             	mov    %al,-0xb(%ebp)
c010112f:	0f b6 05 42 b0 10 c0 	movzbl 0xc010b042,%eax
c0101136:	88 45 f4             	mov    %al,-0xc(%ebp)
c0101139:	0f b6 05 43 b0 10 c0 	movzbl 0xc010b043,%eax
c0101140:	88 45 f3             	mov    %al,-0xd(%ebp)
c0101143:	0f b6 05 44 b0 10 c0 	movzbl 0xc010b044,%eax
c010114a:	88 45 f2             	mov    %al,-0xe(%ebp)
c010114d:	a1 48 b0 10 c0       	mov    0xc010b048,%eax
c0101152:	88 45 f1             	mov    %al,-0xf(%ebp)
c0101155:	0f b6 45 f7          	movzbl -0x9(%ebp),%eax
c0101159:	88 45 f0             	mov    %al,-0x10(%ebp)
c010115c:	90                   	nop
c010115d:	e8 c7 fe ff ff       	call   c0101029 <get_update_in_progress_flag>
c0101162:	85 c0                	test   %eax,%eax
c0101164:	75 f7                	jne    c010115d <read_rtc+0xdf>
c0101166:	83 ec 0c             	sub    $0xc,%esp
c0101169:	6a 00                	push   $0x0
c010116b:	e8 e5 fe ff ff       	call   c0101055 <get_RTC_register>
c0101170:	83 c4 10             	add    $0x10,%esp
c0101173:	a2 40 b0 10 c0       	mov    %al,0xc010b040
c0101178:	83 ec 0c             	sub    $0xc,%esp
c010117b:	6a 02                	push   $0x2
c010117d:	e8 d3 fe ff ff       	call   c0101055 <get_RTC_register>
c0101182:	83 c4 10             	add    $0x10,%esp
c0101185:	a2 41 b0 10 c0       	mov    %al,0xc010b041
c010118a:	83 ec 0c             	sub    $0xc,%esp
c010118d:	6a 04                	push   $0x4
c010118f:	e8 c1 fe ff ff       	call   c0101055 <get_RTC_register>
c0101194:	83 c4 10             	add    $0x10,%esp
c0101197:	a2 42 b0 10 c0       	mov    %al,0xc010b042
c010119c:	83 ec 0c             	sub    $0xc,%esp
c010119f:	6a 07                	push   $0x7
c01011a1:	e8 af fe ff ff       	call   c0101055 <get_RTC_register>
c01011a6:	83 c4 10             	add    $0x10,%esp
c01011a9:	a2 43 b0 10 c0       	mov    %al,0xc010b043
c01011ae:	83 ec 0c             	sub    $0xc,%esp
c01011b1:	6a 08                	push   $0x8
c01011b3:	e8 9d fe ff ff       	call   c0101055 <get_RTC_register>
c01011b8:	83 c4 10             	add    $0x10,%esp
c01011bb:	a2 44 b0 10 c0       	mov    %al,0xc010b044
c01011c0:	83 ec 0c             	sub    $0xc,%esp
c01011c3:	6a 09                	push   $0x9
c01011c5:	e8 8b fe ff ff       	call   c0101055 <get_RTC_register>
c01011ca:	83 c4 10             	add    $0x10,%esp
c01011cd:	0f b6 c0             	movzbl %al,%eax
c01011d0:	a3 48 b0 10 c0       	mov    %eax,0xc010b048
c01011d5:	a1 3c b0 10 c0       	mov    0xc010b03c,%eax
c01011da:	85 c0                	test   %eax,%eax
c01011dc:	74 14                	je     c01011f2 <read_rtc+0x174>
c01011de:	a1 3c b0 10 c0       	mov    0xc010b03c,%eax
c01011e3:	83 ec 0c             	sub    $0xc,%esp
c01011e6:	50                   	push   %eax
c01011e7:	e8 69 fe ff ff       	call   c0101055 <get_RTC_register>
c01011ec:	83 c4 10             	add    $0x10,%esp
c01011ef:	88 45 f7             	mov    %al,-0x9(%ebp)
c01011f2:	0f b6 05 40 b0 10 c0 	movzbl 0xc010b040,%eax
c01011f9:	38 45 f6             	cmp    %al,-0xa(%ebp)
c01011fc:	0f 85 19 ff ff ff    	jne    c010111b <read_rtc+0x9d>
c0101202:	0f b6 05 41 b0 10 c0 	movzbl 0xc010b041,%eax
c0101209:	38 45 f5             	cmp    %al,-0xb(%ebp)
c010120c:	0f 85 09 ff ff ff    	jne    c010111b <read_rtc+0x9d>
c0101212:	0f b6 05 42 b0 10 c0 	movzbl 0xc010b042,%eax
c0101219:	38 45 f4             	cmp    %al,-0xc(%ebp)
c010121c:	0f 85 f9 fe ff ff    	jne    c010111b <read_rtc+0x9d>
c0101222:	0f b6 05 43 b0 10 c0 	movzbl 0xc010b043,%eax
c0101229:	38 45 f3             	cmp    %al,-0xd(%ebp)
c010122c:	0f 85 e9 fe ff ff    	jne    c010111b <read_rtc+0x9d>
c0101232:	0f b6 05 44 b0 10 c0 	movzbl 0xc010b044,%eax
c0101239:	38 45 f2             	cmp    %al,-0xe(%ebp)
c010123c:	0f 85 d9 fe ff ff    	jne    c010111b <read_rtc+0x9d>
c0101242:	0f b6 55 f1          	movzbl -0xf(%ebp),%edx
c0101246:	a1 48 b0 10 c0       	mov    0xc010b048,%eax
c010124b:	39 c2                	cmp    %eax,%edx
c010124d:	0f 85 c8 fe ff ff    	jne    c010111b <read_rtc+0x9d>
c0101253:	0f b6 45 f0          	movzbl -0x10(%ebp),%eax
c0101257:	3a 45 f7             	cmp    -0x9(%ebp),%al
c010125a:	0f 85 bb fe ff ff    	jne    c010111b <read_rtc+0x9d>
c0101260:	83 ec 0c             	sub    $0xc,%esp
c0101263:	6a 0b                	push   $0xb
c0101265:	e8 eb fd ff ff       	call   c0101055 <get_RTC_register>
c010126a:	83 c4 10             	add    $0x10,%esp
c010126d:	88 45 ef             	mov    %al,-0x11(%ebp)
c0101270:	0f b6 45 ef          	movzbl -0x11(%ebp),%eax
c0101274:	83 e0 04             	and    $0x4,%eax
c0101277:	85 c0                	test   %eax,%eax
c0101279:	0f 85 31 01 00 00    	jne    c01013b0 <read_rtc+0x332>
c010127f:	0f b6 05 40 b0 10 c0 	movzbl 0xc010b040,%eax
c0101286:	83 e0 0f             	and    $0xf,%eax
c0101289:	89 c1                	mov    %eax,%ecx
c010128b:	0f b6 05 40 b0 10 c0 	movzbl 0xc010b040,%eax
c0101292:	c0 e8 04             	shr    $0x4,%al
c0101295:	89 c2                	mov    %eax,%edx
c0101297:	89 d0                	mov    %edx,%eax
c0101299:	c1 e0 02             	shl    $0x2,%eax
c010129c:	01 d0                	add    %edx,%eax
c010129e:	01 c0                	add    %eax,%eax
c01012a0:	01 c8                	add    %ecx,%eax
c01012a2:	a2 40 b0 10 c0       	mov    %al,0xc010b040
c01012a7:	0f b6 05 41 b0 10 c0 	movzbl 0xc010b041,%eax
c01012ae:	83 e0 0f             	and    $0xf,%eax
c01012b1:	89 c1                	mov    %eax,%ecx
c01012b3:	0f b6 05 41 b0 10 c0 	movzbl 0xc010b041,%eax
c01012ba:	c0 e8 04             	shr    $0x4,%al
c01012bd:	89 c2                	mov    %eax,%edx
c01012bf:	89 d0                	mov    %edx,%eax
c01012c1:	c1 e0 02             	shl    $0x2,%eax
c01012c4:	01 d0                	add    %edx,%eax
c01012c6:	01 c0                	add    %eax,%eax
c01012c8:	01 c8                	add    %ecx,%eax
c01012ca:	a2 41 b0 10 c0       	mov    %al,0xc010b041
c01012cf:	0f b6 05 42 b0 10 c0 	movzbl 0xc010b042,%eax
c01012d6:	83 e0 0f             	and    $0xf,%eax
c01012d9:	89 c1                	mov    %eax,%ecx
c01012db:	0f b6 05 42 b0 10 c0 	movzbl 0xc010b042,%eax
c01012e2:	0f b6 c0             	movzbl %al,%eax
c01012e5:	83 e0 70             	and    $0x70,%eax
c01012e8:	8d 50 0f             	lea    0xf(%eax),%edx
c01012eb:	85 c0                	test   %eax,%eax
c01012ed:	0f 48 c2             	cmovs  %edx,%eax
c01012f0:	c1 f8 04             	sar    $0x4,%eax
c01012f3:	89 c2                	mov    %eax,%edx
c01012f5:	89 d0                	mov    %edx,%eax
c01012f7:	c1 e0 02             	shl    $0x2,%eax
c01012fa:	01 d0                	add    %edx,%eax
c01012fc:	01 c0                	add    %eax,%eax
c01012fe:	01 c8                	add    %ecx,%eax
c0101300:	89 c2                	mov    %eax,%edx
c0101302:	0f b6 05 42 b0 10 c0 	movzbl 0xc010b042,%eax
c0101309:	83 e0 80             	and    $0xffffff80,%eax
c010130c:	09 d0                	or     %edx,%eax
c010130e:	a2 42 b0 10 c0       	mov    %al,0xc010b042
c0101313:	0f b6 05 43 b0 10 c0 	movzbl 0xc010b043,%eax
c010131a:	83 e0 0f             	and    $0xf,%eax
c010131d:	89 c1                	mov    %eax,%ecx
c010131f:	0f b6 05 43 b0 10 c0 	movzbl 0xc010b043,%eax
c0101326:	c0 e8 04             	shr    $0x4,%al
c0101329:	89 c2                	mov    %eax,%edx
c010132b:	89 d0                	mov    %edx,%eax
c010132d:	c1 e0 02             	shl    $0x2,%eax
c0101330:	01 d0                	add    %edx,%eax
c0101332:	01 c0                	add    %eax,%eax
c0101334:	01 c8                	add    %ecx,%eax
c0101336:	a2 43 b0 10 c0       	mov    %al,0xc010b043
c010133b:	0f b6 05 44 b0 10 c0 	movzbl 0xc010b044,%eax
c0101342:	83 e0 0f             	and    $0xf,%eax
c0101345:	89 c1                	mov    %eax,%ecx
c0101347:	0f b6 05 44 b0 10 c0 	movzbl 0xc010b044,%eax
c010134e:	c0 e8 04             	shr    $0x4,%al
c0101351:	89 c2                	mov    %eax,%edx
c0101353:	89 d0                	mov    %edx,%eax
c0101355:	c1 e0 02             	shl    $0x2,%eax
c0101358:	01 d0                	add    %edx,%eax
c010135a:	01 c0                	add    %eax,%eax
c010135c:	01 c8                	add    %ecx,%eax
c010135e:	a2 44 b0 10 c0       	mov    %al,0xc010b044
c0101363:	a1 48 b0 10 c0       	mov    0xc010b048,%eax
c0101368:	83 e0 0f             	and    $0xf,%eax
c010136b:	89 c1                	mov    %eax,%ecx
c010136d:	a1 48 b0 10 c0       	mov    0xc010b048,%eax
c0101372:	c1 e8 04             	shr    $0x4,%eax
c0101375:	89 c2                	mov    %eax,%edx
c0101377:	89 d0                	mov    %edx,%eax
c0101379:	c1 e0 02             	shl    $0x2,%eax
c010137c:	01 d0                	add    %edx,%eax
c010137e:	01 c0                	add    %eax,%eax
c0101380:	01 c8                	add    %ecx,%eax
c0101382:	a3 48 b0 10 c0       	mov    %eax,0xc010b048
c0101387:	a1 3c b0 10 c0       	mov    0xc010b03c,%eax
c010138c:	85 c0                	test   %eax,%eax
c010138e:	74 20                	je     c01013b0 <read_rtc+0x332>
c0101390:	0f b6 45 f7          	movzbl -0x9(%ebp),%eax
c0101394:	83 e0 0f             	and    $0xf,%eax
c0101397:	89 c1                	mov    %eax,%ecx
c0101399:	0f b6 45 f7          	movzbl -0x9(%ebp),%eax
c010139d:	c0 e8 04             	shr    $0x4,%al
c01013a0:	89 c2                	mov    %eax,%edx
c01013a2:	89 d0                	mov    %edx,%eax
c01013a4:	c1 e0 02             	shl    $0x2,%eax
c01013a7:	01 d0                	add    %edx,%eax
c01013a9:	01 c0                	add    %eax,%eax
c01013ab:	01 c8                	add    %ecx,%eax
c01013ad:	88 45 f7             	mov    %al,-0x9(%ebp)
c01013b0:	0f b6 45 ef          	movzbl -0x11(%ebp),%eax
c01013b4:	83 e0 02             	and    $0x2,%eax
c01013b7:	85 c0                	test   %eax,%eax
c01013b9:	75 46                	jne    c0101401 <read_rtc+0x383>
c01013bb:	0f b6 05 42 b0 10 c0 	movzbl 0xc010b042,%eax
c01013c2:	84 c0                	test   %al,%al
c01013c4:	79 3b                	jns    c0101401 <read_rtc+0x383>
c01013c6:	0f b6 05 42 b0 10 c0 	movzbl 0xc010b042,%eax
c01013cd:	0f b6 c0             	movzbl %al,%eax
c01013d0:	83 e0 7f             	and    $0x7f,%eax
c01013d3:	8d 48 0c             	lea    0xc(%eax),%ecx
c01013d6:	ba ab aa aa 2a       	mov    $0x2aaaaaab,%edx
c01013db:	89 c8                	mov    %ecx,%eax
c01013dd:	f7 ea                	imul   %edx
c01013df:	89 d0                	mov    %edx,%eax
c01013e1:	c1 f8 02             	sar    $0x2,%eax
c01013e4:	89 cb                	mov    %ecx,%ebx
c01013e6:	c1 fb 1f             	sar    $0x1f,%ebx
c01013e9:	29 d8                	sub    %ebx,%eax
c01013eb:	89 c2                	mov    %eax,%edx
c01013ed:	89 d0                	mov    %edx,%eax
c01013ef:	01 c0                	add    %eax,%eax
c01013f1:	01 d0                	add    %edx,%eax
c01013f3:	c1 e0 03             	shl    $0x3,%eax
c01013f6:	29 c1                	sub    %eax,%ecx
c01013f8:	89 ca                	mov    %ecx,%edx
c01013fa:	89 d0                	mov    %edx,%eax
c01013fc:	a2 42 b0 10 c0       	mov    %al,0xc010b042
c0101401:	a1 3c b0 10 c0       	mov    0xc010b03c,%eax
c0101406:	85 c0                	test   %eax,%eax
c0101408:	74 17                	je     c0101421 <read_rtc+0x3a3>
c010140a:	0f b6 45 f7          	movzbl -0x9(%ebp),%eax
c010140e:	6b c0 64             	imul   $0x64,%eax,%eax
c0101411:	89 c2                	mov    %eax,%edx
c0101413:	a1 48 b0 10 c0       	mov    0xc010b048,%eax
c0101418:	01 d0                	add    %edx,%eax
c010141a:	a3 48 b0 10 c0       	mov    %eax,0xc010b048
c010141f:	eb 28                	jmp    c0101449 <read_rtc+0x3cb>
c0101421:	a1 48 b0 10 c0       	mov    0xc010b048,%eax
c0101426:	05 d0 07 00 00       	add    $0x7d0,%eax
c010142b:	a3 48 b0 10 c0       	mov    %eax,0xc010b048
c0101430:	a1 48 b0 10 c0       	mov    0xc010b048,%eax
c0101435:	3d e4 07 00 00       	cmp    $0x7e4,%eax
c010143a:	77 0d                	ja     c0101449 <read_rtc+0x3cb>
c010143c:	a1 48 b0 10 c0       	mov    0xc010b048,%eax
c0101441:	83 c0 64             	add    $0x64,%eax
c0101444:	a3 48 b0 10 c0       	mov    %eax,0xc010b048
c0101449:	0f b6 05 42 b0 10 c0 	movzbl 0xc010b042,%eax
c0101450:	83 c0 02             	add    $0x2,%eax
c0101453:	a2 42 b0 10 c0       	mov    %al,0xc010b042
c0101458:	90                   	nop
c0101459:	8b 5d fc             	mov    -0x4(%ebp),%ebx
c010145c:	c9                   	leave  
c010145d:	c3                   	ret    

c010145e <list_add_head>:
c010145e:	55                   	push   %ebp
c010145f:	89 e5                	mov    %esp,%ebp
c0101461:	83 ec 10             	sub    $0x10,%esp
c0101464:	8b 45 08             	mov    0x8(%ebp),%eax
c0101467:	8b 00                	mov    (%eax),%eax
c0101469:	89 45 fc             	mov    %eax,-0x4(%ebp)
c010146c:	8b 45 fc             	mov    -0x4(%ebp),%eax
c010146f:	8b 55 0c             	mov    0xc(%ebp),%edx
c0101472:	89 50 04             	mov    %edx,0x4(%eax)
c0101475:	8b 45 0c             	mov    0xc(%ebp),%eax
c0101478:	8b 55 fc             	mov    -0x4(%ebp),%edx
c010147b:	89 10                	mov    %edx,(%eax)
c010147d:	8b 45 0c             	mov    0xc(%ebp),%eax
c0101480:	8b 55 08             	mov    0x8(%ebp),%edx
c0101483:	89 50 04             	mov    %edx,0x4(%eax)
c0101486:	8b 45 08             	mov    0x8(%ebp),%eax
c0101489:	8b 55 0c             	mov    0xc(%ebp),%edx
c010148c:	89 10                	mov    %edx,(%eax)
c010148e:	90                   	nop
c010148f:	c9                   	leave  
c0101490:	c3                   	ret    

c0101491 <read_stdin>:
c0101491:	55                   	push   %ebp
c0101492:	89 e5                	mov    %esp,%ebp
c0101494:	83 ec 08             	sub    $0x8,%esp
c0101497:	a1 34 e0 10 c0       	mov    0xc010e034,%eax
c010149c:	8b 40 68             	mov    0x68(%eax),%eax
c010149f:	85 c0                	test   %eax,%eax
c01014a1:	74 16                	je     c01014b9 <read_stdin+0x28>
c01014a3:	a1 34 e0 10 c0       	mov    0xc010e034,%eax
c01014a8:	8b 40 68             	mov    0x68(%eax),%eax
c01014ab:	83 ec 0c             	sub    $0xc,%esp
c01014ae:	50                   	push   %eax
c01014af:	e8 ba ed ff ff       	call   c010026e <read_byte_stream>
c01014b4:	83 c4 10             	add    $0x10,%esp
c01014b7:	eb 11                	jmp    c01014ca <read_stdin+0x39>
c01014b9:	a1 0c b0 10 c0       	mov    0xc010b00c,%eax
c01014be:	83 ec 0c             	sub    $0xc,%esp
c01014c1:	50                   	push   %eax
c01014c2:	e8 a7 ed ff ff       	call   c010026e <read_byte_stream>
c01014c7:	83 c4 10             	add    $0x10,%esp
c01014ca:	c9                   	leave  
c01014cb:	c3                   	ret    

c01014cc <keyboard_callback>:
c01014cc:	55                   	push   %ebp
c01014cd:	89 e5                	mov    %esp,%ebp
c01014cf:	83 ec 18             	sub    $0x18,%esp
c01014d2:	83 ec 08             	sub    $0x8,%esp
c01014d5:	6a 20                	push   $0x20
c01014d7:	6a 20                	push   $0x20
c01014d9:	e8 65 28 00 00       	call   c0103d43 <outb>
c01014de:	83 c4 10             	add    $0x10,%esp
c01014e1:	83 ec 0c             	sub    $0xc,%esp
c01014e4:	6a 60                	push   $0x60
c01014e6:	e8 3b 28 00 00       	call   c0103d26 <inb>
c01014eb:	83 c4 10             	add    $0x10,%esp
c01014ee:	88 45 f6             	mov    %al,-0xa(%ebp)
c01014f1:	80 7d f6 39          	cmpb   $0x39,-0xa(%ebp)
c01014f5:	77 79                	ja     c0101570 <keyboard_callback+0xa4>
c01014f7:	c6 45 f7 00          	movb   $0x0,-0x9(%ebp)
c01014fb:	80 7d f6 0e          	cmpb   $0xe,-0xa(%ebp)
c01014ff:	75 06                	jne    c0101507 <keyboard_callback+0x3b>
c0101501:	c6 45 f7 0e          	movb   $0xe,-0x9(%ebp)
c0101505:	eb 26                	jmp    c010152d <keyboard_callback+0x61>
c0101507:	80 7d f6 1d          	cmpb   $0x1d,-0xa(%ebp)
c010150b:	75 06                	jne    c0101513 <keyboard_callback+0x47>
c010150d:	c6 45 f7 1d          	movb   $0x1d,-0x9(%ebp)
c0101511:	eb 1a                	jmp    c010152d <keyboard_callback+0x61>
c0101513:	80 7d f6 1c          	cmpb   $0x1c,-0xa(%ebp)
c0101517:	75 06                	jne    c010151f <keyboard_callback+0x53>
c0101519:	c6 45 f7 0a          	movb   $0xa,-0x9(%ebp)
c010151d:	eb 0e                	jmp    c010152d <keyboard_callback+0x61>
c010151f:	0f b6 45 f6          	movzbl -0xa(%ebp),%eax
c0101523:	0f b6 80 60 02 00 00 	movzbl 0x260(%eax),%eax
c010152a:	88 45 f7             	mov    %al,-0x9(%ebp)
c010152d:	83 ec 0c             	sub    $0xc,%esp
c0101530:	6a 00                	push   $0x0
c0101532:	e8 9d 36 00 00       	call   c0104bd4 <normal_page_alloc>
c0101537:	83 c4 10             	add    $0x10,%esp
c010153a:	89 45 f0             	mov    %eax,-0x10(%ebp)
c010153d:	8b 45 f0             	mov    -0x10(%ebp),%eax
c0101540:	0f b6 55 f7          	movzbl -0x9(%ebp),%edx
c0101544:	88 10                	mov    %dl,(%eax)
c0101546:	8b 45 f0             	mov    -0x10(%ebp),%eax
c0101549:	83 c0 04             	add    $0x4,%eax
c010154c:	83 ec 08             	sub    $0x8,%esp
c010154f:	50                   	push   %eax
c0101550:	68 44 e0 10 c0       	push   $0xc010e044
c0101555:	e8 04 ff ff ff       	call   c010145e <list_add_head>
c010155a:	83 c4 10             	add    $0x10,%esp
c010155d:	a1 4c e0 10 c0       	mov    0xc010e04c,%eax
c0101562:	83 ec 0c             	sub    $0xc,%esp
c0101565:	50                   	push   %eax
c0101566:	e8 70 45 00 00       	call   c0105adb <wake_up_thread>
c010156b:	83 c4 10             	add    $0x10,%esp
c010156e:	eb 01                	jmp    c0101571 <keyboard_callback+0xa5>
c0101570:	90                   	nop
c0101571:	c9                   	leave  
c0101572:	c3                   	ret    

c0101573 <init_keyboard>:
c0101573:	55                   	push   %ebp
c0101574:	89 e5                	mov    %esp,%ebp
c0101576:	83 ec 08             	sub    $0x8,%esp
c0101579:	83 ec 08             	sub    $0x8,%esp
c010157c:	68 cc 14 10 c0       	push   $0xc01014cc
c0101581:	6a 21                	push   $0x21
c0101583:	e8 67 27 00 00       	call   c0103cef <register_interrupt_handler>
c0101588:	83 c4 10             	add    $0x10,%esp
c010158b:	90                   	nop
c010158c:	c9                   	leave  
c010158d:	c3                   	ret    

c010158e <checkAllBuses>:
c010158e:	55                   	push   %ebp
c010158f:	89 e5                	mov    %esp,%ebp
c0101591:	83 ec 18             	sub    $0x18,%esp
c0101594:	66 c7 45 f6 00 00    	movw   $0x0,-0xa(%ebp)
c010159a:	eb 36                	jmp    c01015d2 <checkAllBuses+0x44>
c010159c:	c6 45 f5 00          	movb   $0x0,-0xb(%ebp)
c01015a0:	eb 1f                	jmp    c01015c1 <checkAllBuses+0x33>
c01015a2:	0f b6 55 f5          	movzbl -0xb(%ebp),%edx
c01015a6:	0f b7 45 f6          	movzwl -0xa(%ebp),%eax
c01015aa:	83 ec 08             	sub    $0x8,%esp
c01015ad:	52                   	push   %edx
c01015ae:	50                   	push   %eax
c01015af:	e8 cd 00 00 00       	call   c0101681 <pci_check_vendor>
c01015b4:	83 c4 10             	add    $0x10,%esp
c01015b7:	0f b6 45 f5          	movzbl -0xb(%ebp),%eax
c01015bb:	83 c0 01             	add    $0x1,%eax
c01015be:	88 45 f5             	mov    %al,-0xb(%ebp)
c01015c1:	80 7d f5 1f          	cmpb   $0x1f,-0xb(%ebp)
c01015c5:	76 db                	jbe    c01015a2 <checkAllBuses+0x14>
c01015c7:	0f b7 45 f6          	movzwl -0xa(%ebp),%eax
c01015cb:	83 c0 01             	add    $0x1,%eax
c01015ce:	66 89 45 f6          	mov    %ax,-0xa(%ebp)
c01015d2:	66 81 7d f6 ff 00    	cmpw   $0xff,-0xa(%ebp)
c01015d8:	76 c2                	jbe    c010159c <checkAllBuses+0xe>
c01015da:	90                   	nop
c01015db:	90                   	nop
c01015dc:	c9                   	leave  
c01015dd:	c3                   	ret    

c01015de <pci_config_read_word>:
c01015de:	55                   	push   %ebp
c01015df:	89 e5                	mov    %esp,%ebp
c01015e1:	53                   	push   %ebx
c01015e2:	83 ec 34             	sub    $0x34,%esp
c01015e5:	8b 5d 08             	mov    0x8(%ebp),%ebx
c01015e8:	8b 4d 0c             	mov    0xc(%ebp),%ecx
c01015eb:	8b 55 10             	mov    0x10(%ebp),%edx
c01015ee:	8b 45 14             	mov    0x14(%ebp),%eax
c01015f1:	88 5d d4             	mov    %bl,-0x2c(%ebp)
c01015f4:	88 4d d0             	mov    %cl,-0x30(%ebp)
c01015f7:	88 55 cc             	mov    %dl,-0x34(%ebp)
c01015fa:	88 45 c8             	mov    %al,-0x38(%ebp)
c01015fd:	0f b6 45 d4          	movzbl -0x2c(%ebp),%eax
c0101601:	89 45 f4             	mov    %eax,-0xc(%ebp)
c0101604:	0f b6 45 d0          	movzbl -0x30(%ebp),%eax
c0101608:	89 45 f0             	mov    %eax,-0x10(%ebp)
c010160b:	0f b6 45 cc          	movzbl -0x34(%ebp),%eax
c010160f:	89 45 ec             	mov    %eax,-0x14(%ebp)
c0101612:	66 c7 45 ea 00 00    	movw   $0x0,-0x16(%ebp)
c0101618:	8b 45 f4             	mov    -0xc(%ebp),%eax
c010161b:	c1 e0 10             	shl    $0x10,%eax
c010161e:	89 c2                	mov    %eax,%edx
c0101620:	8b 45 f0             	mov    -0x10(%ebp),%eax
c0101623:	c1 e0 0b             	shl    $0xb,%eax
c0101626:	09 c2                	or     %eax,%edx
c0101628:	8b 45 ec             	mov    -0x14(%ebp),%eax
c010162b:	c1 e0 08             	shl    $0x8,%eax
c010162e:	09 c2                	or     %eax,%edx
c0101630:	0f b6 45 c8          	movzbl -0x38(%ebp),%eax
c0101634:	25 fc 00 00 00       	and    $0xfc,%eax
c0101639:	09 d0                	or     %edx,%eax
c010163b:	0d 00 00 00 80       	or     $0x80000000,%eax
c0101640:	89 45 e4             	mov    %eax,-0x1c(%ebp)
c0101643:	83 ec 08             	sub    $0x8,%esp
c0101646:	ff 75 e4             	push   -0x1c(%ebp)
c0101649:	68 f8 0c 00 00       	push   $0xcf8
c010164e:	e8 51 27 00 00       	call   c0103da4 <outdw>
c0101653:	83 c4 10             	add    $0x10,%esp
c0101656:	83 ec 0c             	sub    $0xc,%esp
c0101659:	68 fc 0c 00 00       	push   $0xcfc
c010165e:	e8 59 27 00 00       	call   c0103dbc <indw>
c0101663:	83 c4 10             	add    $0x10,%esp
c0101666:	0f b6 55 c8          	movzbl -0x38(%ebp),%edx
c010166a:	83 e2 02             	and    $0x2,%edx
c010166d:	c1 e2 03             	shl    $0x3,%edx
c0101670:	89 d1                	mov    %edx,%ecx
c0101672:	d3 e8                	shr    %cl,%eax
c0101674:	66 89 45 ea          	mov    %ax,-0x16(%ebp)
c0101678:	0f b7 45 ea          	movzwl -0x16(%ebp),%eax
c010167c:	8b 5d fc             	mov    -0x4(%ebp),%ebx
c010167f:	c9                   	leave  
c0101680:	c3                   	ret    

c0101681 <pci_check_vendor>:
c0101681:	55                   	push   %ebp
c0101682:	89 e5                	mov    %esp,%ebp
c0101684:	83 ec 28             	sub    $0x28,%esp
c0101687:	8b 45 08             	mov    0x8(%ebp),%eax
c010168a:	8b 55 0c             	mov    0xc(%ebp),%edx
c010168d:	66 89 45 e4          	mov    %ax,-0x1c(%ebp)
c0101691:	89 d0                	mov    %edx,%eax
c0101693:	88 45 e0             	mov    %al,-0x20(%ebp)
c0101696:	0f b6 55 e0          	movzbl -0x20(%ebp),%edx
c010169a:	0f b7 45 e4          	movzwl -0x1c(%ebp),%eax
c010169e:	0f b6 c0             	movzbl %al,%eax
c01016a1:	6a 00                	push   $0x0
c01016a3:	6a 00                	push   $0x0
c01016a5:	52                   	push   %edx
c01016a6:	50                   	push   %eax
c01016a7:	e8 32 ff ff ff       	call   c01015de <pci_config_read_word>
c01016ac:	83 c4 10             	add    $0x10,%esp
c01016af:	66 89 45 f6          	mov    %ax,-0xa(%ebp)
c01016b3:	66 83 7d f6 ff       	cmpw   $0xffff,-0xa(%ebp)
c01016b8:	74 37                	je     c01016f1 <pci_check_vendor+0x70>
c01016ba:	0f b6 55 e0          	movzbl -0x20(%ebp),%edx
c01016be:	0f b7 45 e4          	movzwl -0x1c(%ebp),%eax
c01016c2:	0f b6 c0             	movzbl %al,%eax
c01016c5:	6a 02                	push   $0x2
c01016c7:	6a 00                	push   $0x0
c01016c9:	52                   	push   %edx
c01016ca:	50                   	push   %eax
c01016cb:	e8 0e ff ff ff       	call   c01015de <pci_config_read_word>
c01016d0:	83 c4 10             	add    $0x10,%esp
c01016d3:	66 89 45 f4          	mov    %ax,-0xc(%ebp)
c01016d7:	0f b7 55 f4          	movzwl -0xc(%ebp),%edx
c01016db:	0f b7 45 f6          	movzwl -0xa(%ebp),%eax
c01016df:	83 ec 04             	sub    $0x4,%esp
c01016e2:	52                   	push   %edx
c01016e3:	50                   	push   %eax
c01016e4:	68 9a 02 00 00       	push   $0x29a
c01016e9:	e8 45 03 00 00       	call   c0101a33 <kprintf>
c01016ee:	83 c4 10             	add    $0x10,%esp
c01016f1:	0f b7 45 f6          	movzwl -0xa(%ebp),%eax
c01016f5:	c9                   	leave  
c01016f6:	c3                   	ret    

c01016f7 <setTextColor>:
c01016f7:	55                   	push   %ebp
c01016f8:	89 e5                	mov    %esp,%ebp
c01016fa:	83 ec 04             	sub    $0x4,%esp
c01016fd:	8b 45 08             	mov    0x8(%ebp),%eax
c0101700:	88 45 fc             	mov    %al,-0x4(%ebp)
c0101703:	0f b6 05 e8 a0 10 c0 	movzbl 0xc010a0e8,%eax
c010170a:	c0 e8 04             	shr    $0x4,%al
c010170d:	0f b6 c0             	movzbl %al,%eax
c0101710:	c1 e0 04             	shl    $0x4,%eax
c0101713:	89 c2                	mov    %eax,%edx
c0101715:	0f b6 45 fc          	movzbl -0x4(%ebp),%eax
c0101719:	83 e0 0f             	and    $0xf,%eax
c010171c:	09 d0                	or     %edx,%eax
c010171e:	a2 e8 a0 10 c0       	mov    %al,0xc010a0e8
c0101723:	90                   	nop
c0101724:	c9                   	leave  
c0101725:	c3                   	ret    

c0101726 <setBackgroundColor>:
c0101726:	55                   	push   %ebp
c0101727:	89 e5                	mov    %esp,%ebp
c0101729:	83 ec 04             	sub    $0x4,%esp
c010172c:	8b 45 08             	mov    0x8(%ebp),%eax
c010172f:	88 45 fc             	mov    %al,-0x4(%ebp)
c0101732:	0f b6 45 fc          	movzbl -0x4(%ebp),%eax
c0101736:	c1 e0 04             	shl    $0x4,%eax
c0101739:	89 c2                	mov    %eax,%edx
c010173b:	0f b6 05 e8 a0 10 c0 	movzbl 0xc010a0e8,%eax
c0101742:	09 d0                	or     %edx,%eax
c0101744:	a2 e8 a0 10 c0       	mov    %al,0xc010a0e8
c0101749:	90                   	nop
c010174a:	c9                   	leave  
c010174b:	c3                   	ret    

c010174c <resetScreenColors>:
c010174c:	55                   	push   %ebp
c010174d:	89 e5                	mov    %esp,%ebp
c010174f:	c6 05 e8 a0 10 c0 0f 	movb   $0xf,0xc010a0e8
c0101756:	90                   	nop
c0101757:	5d                   	pop    %ebp
c0101758:	c3                   	ret    

c0101759 <itoa>:
c0101759:	55                   	push   %ebp
c010175a:	89 e5                	mov    %esp,%ebp
c010175c:	83 ec 20             	sub    $0x20,%esp
c010175f:	8b 45 08             	mov    0x8(%ebp),%eax
c0101762:	89 45 fc             	mov    %eax,-0x4(%ebp)
c0101765:	8b 45 10             	mov    0x10(%ebp),%eax
c0101768:	89 45 f0             	mov    %eax,-0x10(%ebp)
c010176b:	c7 45 ec 0a 00 00 00 	movl   $0xa,-0x14(%ebp)
c0101772:	83 7d 0c 64          	cmpl   $0x64,0xc(%ebp)
c0101776:	75 20                	jne    c0101798 <itoa+0x3f>
c0101778:	83 7d 10 00          	cmpl   $0x0,0x10(%ebp)
c010177c:	79 1a                	jns    c0101798 <itoa+0x3f>
c010177e:	8b 45 fc             	mov    -0x4(%ebp),%eax
c0101781:	8d 50 01             	lea    0x1(%eax),%edx
c0101784:	89 55 fc             	mov    %edx,-0x4(%ebp)
c0101787:	c6 00 2d             	movb   $0x2d,(%eax)
c010178a:	83 45 08 01          	addl   $0x1,0x8(%ebp)
c010178e:	8b 45 10             	mov    0x10(%ebp),%eax
c0101791:	f7 d8                	neg    %eax
c0101793:	89 45 f0             	mov    %eax,-0x10(%ebp)
c0101796:	eb 0d                	jmp    c01017a5 <itoa+0x4c>
c0101798:	83 7d 0c 78          	cmpl   $0x78,0xc(%ebp)
c010179c:	75 07                	jne    c01017a5 <itoa+0x4c>
c010179e:	c7 45 ec 10 00 00 00 	movl   $0x10,-0x14(%ebp)
c01017a5:	8b 4d ec             	mov    -0x14(%ebp),%ecx
c01017a8:	8b 45 f0             	mov    -0x10(%ebp),%eax
c01017ab:	ba 00 00 00 00       	mov    $0x0,%edx
c01017b0:	f7 f1                	div    %ecx
c01017b2:	89 d0                	mov    %edx,%eax
c01017b4:	89 45 e8             	mov    %eax,-0x18(%ebp)
c01017b7:	83 7d e8 09          	cmpl   $0x9,-0x18(%ebp)
c01017bb:	7f 0a                	jg     c01017c7 <itoa+0x6e>
c01017bd:	8b 45 e8             	mov    -0x18(%ebp),%eax
c01017c0:	83 c0 30             	add    $0x30,%eax
c01017c3:	89 c1                	mov    %eax,%ecx
c01017c5:	eb 08                	jmp    c01017cf <itoa+0x76>
c01017c7:	8b 45 e8             	mov    -0x18(%ebp),%eax
c01017ca:	83 c0 57             	add    $0x57,%eax
c01017cd:	89 c1                	mov    %eax,%ecx
c01017cf:	8b 45 fc             	mov    -0x4(%ebp),%eax
c01017d2:	8d 50 01             	lea    0x1(%eax),%edx
c01017d5:	89 55 fc             	mov    %edx,-0x4(%ebp)
c01017d8:	88 08                	mov    %cl,(%eax)
c01017da:	8b 4d ec             	mov    -0x14(%ebp),%ecx
c01017dd:	8b 45 f0             	mov    -0x10(%ebp),%eax
c01017e0:	ba 00 00 00 00       	mov    $0x0,%edx
c01017e5:	f7 f1                	div    %ecx
c01017e7:	89 45 f0             	mov    %eax,-0x10(%ebp)
c01017ea:	83 7d f0 00          	cmpl   $0x0,-0x10(%ebp)
c01017ee:	75 b5                	jne    c01017a5 <itoa+0x4c>
c01017f0:	8b 45 fc             	mov    -0x4(%ebp),%eax
c01017f3:	c6 00 00             	movb   $0x0,(%eax)
c01017f6:	8b 45 08             	mov    0x8(%ebp),%eax
c01017f9:	89 45 f8             	mov    %eax,-0x8(%ebp)
c01017fc:	8b 45 fc             	mov    -0x4(%ebp),%eax
c01017ff:	83 e8 01             	sub    $0x1,%eax
c0101802:	89 45 f4             	mov    %eax,-0xc(%ebp)
c0101805:	eb 25                	jmp    c010182c <itoa+0xd3>
c0101807:	8b 45 f8             	mov    -0x8(%ebp),%eax
c010180a:	0f b6 00             	movzbl (%eax),%eax
c010180d:	88 45 e7             	mov    %al,-0x19(%ebp)
c0101810:	8b 45 f4             	mov    -0xc(%ebp),%eax
c0101813:	0f b6 10             	movzbl (%eax),%edx
c0101816:	8b 45 f8             	mov    -0x8(%ebp),%eax
c0101819:	88 10                	mov    %dl,(%eax)
c010181b:	8b 45 f4             	mov    -0xc(%ebp),%eax
c010181e:	0f b6 55 e7          	movzbl -0x19(%ebp),%edx
c0101822:	88 10                	mov    %dl,(%eax)
c0101824:	83 45 f8 01          	addl   $0x1,-0x8(%ebp)
c0101828:	83 6d f4 01          	subl   $0x1,-0xc(%ebp)
c010182c:	8b 45 f8             	mov    -0x8(%ebp),%eax
c010182f:	3b 45 f4             	cmp    -0xc(%ebp),%eax
c0101832:	72 d3                	jb     c0101807 <itoa+0xae>
c0101834:	90                   	nop
c0101835:	90                   	nop
c0101836:	c9                   	leave  
c0101837:	c3                   	ret    

c0101838 <kprintfColor>:
c0101838:	55                   	push   %ebp
c0101839:	89 e5                	mov    %esp,%ebp
c010183b:	83 ec 48             	sub    $0x48,%esp
c010183e:	8b 45 08             	mov    0x8(%ebp),%eax
c0101841:	88 45 c4             	mov    %al,-0x3c(%ebp)
c0101844:	0f b6 45 c4          	movzbl -0x3c(%ebp),%eax
c0101848:	50                   	push   %eax
c0101849:	e8 a9 fe ff ff       	call   c01016f7 <setTextColor>
c010184e:	83 c4 04             	add    $0x4,%esp
